

Microchip MPLAB XC8 Assembler V2.36 build 20220127204148 
                                                                                               Tue Sep 13 23:20:50 2022

Microchip MPLAB XC8 C Compiler v2.36 (Free license) build 20220127204148 Og1 
     1                           	processor	18F4620
     2                           	fnconf	rparam,??,?,0
     3                           	pagewidth 120
     4                           	opt	flic
     5                           	psect	idataCOMRAM,global,class=CODE,delta=1,noexec
     6                           	psect	idataBANK0,global,class=CODE,delta=1,noexec
     7                           	psect	smallconst,global,reloc=2,class=SMALLCONST,delta=1,noexec
     8                           	psect	cinit,global,reloc=2,class=CODE,delta=1
     9                           	psect	bssCOMRAM,global,class=COMRAM,space=1,delta=1,lowdata,noexec
    10                           	psect	dataCOMRAM,global,class=COMRAM,space=1,delta=1,lowdata,noexec
    11                           	psect	bssBANK0,global,class=BANK0,space=1,delta=1,lowdata,noexec
    12                           	psect	dataBANK0,global,class=BANK0,space=1,delta=1,lowdata,noexec
    13                           	psect	cstackBANK1,global,class=BANK1,space=1,delta=1,lowdata,noexec
    14                           	psect	cstackCOMRAM,global,class=COMRAM,space=1,delta=1,lowdata,noexec
    15                           	psect	text0,global,reloc=2,class=CODE,delta=1
    16                           	psect	text1,global,reloc=2,class=CODE,delta=1
    17                           	psect	text2,global,reloc=2,class=CODE,delta=1
    18                           	psect	text3,global,reloc=2,class=CODE,delta=1
    19                           	psect	text4,global,reloc=2,class=CODE,delta=1
    20                           	psect	text5,global,reloc=2,class=CODE,delta=1
    21                           	psect	text6,global,reloc=2,class=CODE,delta=1
    22                           	psect	text7,global,reloc=2,class=CODE,delta=1
    23                           	psect	text8,global,reloc=2,class=CODE,delta=1
    24                           	psect	text9,global,reloc=2,class=CODE,delta=1
    25                           	psect	text10,global,reloc=2,class=CODE,delta=1
    26                           	psect	text11,global,reloc=2,class=CODE,delta=1
    27                           	psect	text12,global,reloc=2,class=CODE,delta=1
    28                           	psect	text13,global,reloc=2,class=CODE,delta=1
    29                           	psect	text14,global,reloc=2,class=CODE,delta=1
    30                           	psect	text15,global,reloc=2,class=CODE,delta=1
    31                           	psect	text16,global,reloc=2,class=CODE,delta=1
    32                           	psect	text17,global,reloc=2,class=CODE,delta=1
    33                           	psect	text18,global,reloc=2,class=CODE,delta=1
    34                           	psect	text19,global,reloc=2,class=CODE,delta=1,inline
    35                           	psect	text20,global,reloc=2,class=CODE,delta=1
    36                           	psect	text21,global,reloc=2,class=CODE,delta=1
    37                           	psect	text22,global,reloc=2,class=CODE,delta=1
    38                           	psect	text23,global,reloc=2,class=CODE,delta=1
    39                           	psect	text24,global,reloc=2,class=CODE,delta=1,group=1
    40                           	psect	text25,global,reloc=2,class=CODE,delta=1,group=1
    41                           	psect	intcode,global,reloc=2,class=CODE,delta=1
    42                           	psect	intcode_body,global,reloc=2,class=CODE,delta=1
    43                           	psect	text27,global,reloc=2,class=CODE,delta=1
    44                           	psect	text28,global,reloc=2,class=CODE,delta=1
    45                           	psect	text29,global,reloc=2,class=CODE,delta=1
    46                           	psect	text30,global,reloc=2,class=CODE,delta=1
    47                           	psect	text31,global,reloc=2,class=CODE,delta=1
    48                           	psect	text32,global,reloc=2,class=CODE,delta=1
    49                           	psect	text33,global,reloc=2,class=CODE,delta=1
    50                           	psect	text34,global,reloc=2,class=CODE,delta=1
    51                           	psect	text35,global,reloc=2,class=CODE,delta=1
    52                           	psect	text36,global,reloc=2,class=CODE,delta=1
    53                           	psect	text37,global,reloc=2,class=CODE,delta=1
    54                           	psect	text38,global,reloc=2,class=CODE,delta=1
    55                           	psect	text39,global,reloc=2,class=CODE,delta=1
    56                           	psect	text40,global,reloc=2,class=CODE,delta=1
    57                           	psect	text41,global,reloc=2,class=CODE,delta=1
    58                           	psect	text42,global,reloc=2,class=CODE,delta=1
    59                           	psect	intsave_regs,global,class=BIGRAM,space=1,delta=1,noexec
    60                           	psect	text43,global,reloc=2,class=CODE,delta=1
    61                           	psect	rparam,global,class=COMRAM,space=1,delta=1,noexec
    62                           	psect	temp,global,ovrld,common,class=COMRAM,space=1,delta=1
    63                           	psect	idloc,global,abs,ovrld,class=IDLOC,space=5,delta=1,noexec
    64                           	psect	config,global,abs,ovrld,class=CONFIG,space=4,delta=1,noexec
    65  0000                     
    66                           ; Version 2.40
    67                           ; Generated 17/11/2021 GMT
    68                           ; 
    69                           ; Copyright © 2021, Microchip Technology Inc. and its subsidiaries ("Microchip")
    70                           ; All rights reserved.
    71                           ; 
    72                           ; This software is developed by Microchip Technology Inc. and its subsidiaries ("Microch
      +                          ip").
    73                           ; 
    74                           ; Redistribution and use in source and binary forms, with or without modification, are
    75                           ; permitted provided that the following conditions are met:
    76                           ; 
    77                           ;     1. Redistributions of source code must retain the above copyright notice, this lis
      +                          t of
    78                           ;        conditions and the following disclaimer.
    79                           ; 
    80                           ;     2. Redistributions in binary form must reproduce the above copyright notice, this 
      +                          list
    81                           ;        of conditions and the following disclaimer in the documentation and/or other
    82                           ;        materials provided with the distribution. Publication is not required when
    83                           ;        this file is used in an embedded application.
    84                           ; 
    85                           ;     3. Microchip's name may not be used to endorse or promote products derived from th
      +                          is
    86                           ;        software without specific prior written permission.
    87                           ; 
    88                           ; THIS SOFTWARE IS PROVIDED BY MICROCHIP "AS IS" AND ANY EXPRESS OR IMPLIED WARRANTIES,
    89                           ; INCLUDING, BUT NOT LIMITED TO, THE IMPLIED WARRANTIES OF MERCHANTABILITY AND FITNESS F
      +                          OR
    90                           ; PURPOSE ARE DISCLAIMED.  IN NO EVENT SHALL MICROCHIP BE LIABLE FOR ANY DIRECT, INDIREC
      +                          T,
    91                           ; INCIDENTAL, SPECIAL, EXEMPLARY, OR CONSEQUENTIAL DAMAGES (INCLUDING BUT NOT LIMITED TO
    92                           ; PROCUREMENT OF SUBSTITUTE GOODS OR SERVICES; LOSS OF USE, DATA OR PROFITS; OR BUSINESS
    93                           ; INTERRUPTION) HOWSOEVER CAUSED AND ON ANY THEORY OF LIABILITY, WHETHER IN CONTRACT, ST
      +                          RICT
    94                           ; LIABILITY, OR TORT (INCLUDING NEGLIGENCE OR OTHERWISE) ARISING IN ANY WAY OUT OF THE U
      +                          SE OF
    95                           ; THIS SOFTWARE, EVEN IF ADVISED OF THE POSSIBILITY OF SUCH DAMAGE.
    96                           ; 
    97                           ; 
    98                           ; Code-generator required, PIC18F4620 Definitions
    99                           ; 
   100                           ; SFR Addresses
   101  0000                     
   102                           	psect	idataCOMRAM
   103  002AE6                     __pidataCOMRAM:
   104                           	callstack 0
   105                           
   106                           ;initializer for _minutes
   107  002AE6  3B                 	db	59
   108                           
   109                           ;initializer for _seconds
   110  002AE7  37                 	db	55
   111                           
   112                           ;initializer for _RB7_Flag
   113  002AE8  01                 	db	1
   114                           
   115                           ;initializer for _RB6_Flag
   116  002AE9  01                 	db	1
   117                           
   118                           ;initializer for _RB5_Flag
   119  002AEA  01                 	db	1
   120                           
   121                           ;initializer for _RB4_Flag
   122  002AEB  01                 	db	1
   123                           
   124                           ;initializer for _rc6
   125  002AEC  32                 	db	50
   126                           
   127                           ;initializer for _rc5
   128  002AED  2A                 	db	42
   129                           
   130                           ;initializer for _rc4
   131  002AEE  22                 	db	34
   132                           
   133                           ;initializer for _rc3
   134  002AEF  1A                 	db	26
   135                           
   136                           ;initializer for _rc2
   137  002AF0  12                 	db	18
   138                           
   139                           ;initializer for _rc1
   140  002AF1  0A                 	db	10
   141                           
   142                           ;initializer for _rc0
   143  002AF2  02                 	db	2
   144                           
   145                           ;initializer for _rd5
   146  002AF3  2B                 	db	43
   147                           
   148                           ;initializer for _rd4
   149  002AF4  23                 	db	35
   150                           
   151                           ;initializer for _rd3
   152  002AF5  1B                 	db	27
   153                           
   154                           ;initializer for _rd2
   155  002AF6  13                 	db	19
   156                           
   157                           ;initializer for _rd1
   158  002AF7  0B                 	db	11
   159                           
   160                           ;initializer for _rd0
   161  002AF8  03                 	db	3
   162                           
   163                           	psect	idataBANK0
   164  0028FE                     __pidataBANK0:
   165                           	callstack 0
   166                           
   167                           ;initializer for _port_registers
   168  0028FE  80                 	db	128
   169  0028FF  0F                 	db	15
   170  002900  81                 	db	129
   171  002901  0F                 	db	15
   172  002902  82                 	db	130
   173  002903  0F                 	db	15
   174  002904  83                 	db	131
   175  002905  0F                 	db	15
   176  002906  84                 	db	132
   177  002907  0F                 	db	15
   178                           
   179                           ;initializer for _lat_registers
   180  002908  89                 	db	137
   181  002909  0F                 	db	15
   182  00290A  8A                 	db	138
   183  00290B  0F                 	db	15
   184  00290C  8B                 	db	139
   185  00290D  0F                 	db	15
   186  00290E  8C                 	db	140
   187  00290F  0F                 	db	15
   188  002910  8D                 	db	141
   189  002911  0F                 	db	15
   190                           
   191                           ;initializer for _tris_registers
   192  002912  92                 	db	146
   193  002913  0F                 	db	15
   194  002914  93                 	db	147
   195  002915  0F                 	db	15
   196  002916  94                 	db	148
   197  002917  0F                 	db	15
   198  002918  95                 	db	149
   199  002919  0F                 	db	15
   200  00291A  96                 	db	150
   201  00291B  0F                 	db	15
   202                           
   203                           ;initializer for _lcd_8
   204  00291C  22                 	db	34
   205  00291D  AA                 	db	170
   206  00291E  04                 	db	4
   207  00291F  0C                 	db	12
   208  002920  00                 	db	0
   209  002921  08                 	db	8
   210  002922  32                 	db	50
   211  002923  3A                 	db	58
   212  002924  33                 	db	51
   213  002925  3B                 	db	59
   214                           
   215                           ;initializer for _tmr0
   216  002926  28                 	db	low _TMR_ISR
   217  002927  27                 	db	high _TMR_ISR
   218  002928  00                 	db	0
   219  002929  00                 	db	0
   220  00292A  00                 	db	0
   221  00292B  00                 	db	0
   222  00292C  00                 	db	0
   223  00292D  04                 	db	4
   224  00292E  0BDC               	dw	3036
   225                           
   226                           ;initializer for _lcd_2
   227  002930  32                 	db	50
   228  002931  3A                 	db	58
   229  002932  03                 	db	3
   230  002933  0B                 	db	11
   231  002934  13                 	db	19
   232  002935  1B                 	db	27
   233  002936  23                 	db	35
   234  002937  2B                 	db	43
   235  002938  33                 	db	51
   236  002939  3B                 	db	59
   237                           
   238                           ;initializer for _keypad1
   239  00293A  01                 	db	1
   240  00293B  09                 	db	9
   241  00293C  11                 	db	17
   242  00293D  19                 	db	25
   243  00293E  61                 	db	97
   244  00293F  69                 	db	105
   245  002940  71                 	db	113
   246  002941  79                 	db	121
   247                           
   248                           ;initializer for _lcd_1
   249  002942  02                 	db	2
   250  002943  0A                 	db	10
   251  002944  12                 	db	18
   252  002945  1A                 	db	26
   253  002946  22                 	db	34
   254  002947  2A                 	db	42
   255                           
   256                           	psect	smallconst
   257  001000                     __psmallconst:
   258                           	callstack 0
   259  001000  00                 	db	0
   260  001001                     _keypad_btns:
   261                           	callstack 0
   262  001001  37                 	db	55
   263  001002  38                 	db	56
   264  001003  39                 	db	57
   265  001004  2F                 	db	47
   266  001005  34                 	db	52
   267  001006  35                 	db	53
   268  001007  36                 	db	54
   269  001008  2A                 	db	42
   270  001009  31                 	db	49
   271  00100A  32                 	db	50
   272  00100B  33                 	db	51
   273  00100C  2D                 	db	45
   274  00100D  23                 	db	35
   275  00100E  30                 	db	48
   276  00100F  3D                 	db	61
   277  001010  2B                 	db	43
   278  001011                     __end_of_keypad_btns:
   279                           	callstack 0
   280  0000                     _TMR3	set	4018
   281  0000                     _TMR1	set	4046
   282  0000                     _T3CONbits	set	4017
   283  0000                     _TMR2	set	4044
   284  0000                     _T1CONbits	set	4045
   285  0000                     _TMR0L	set	4054
   286  0000                     _TMR0H	set	4055
   287  0000                     _T0CONbits	set	4053
   288  0000                     _INTCON2bits	set	4081
   289  0000                     _INTCON3bits	set	4080
   290  0000                     _SPBRGH	set	4016
   291  0000                     _SPBRG	set	4015
   292  0000                     _BAUDCONbits	set	4024
   293  0000                     _RCREG	set	4014
   294  0000                     _TXREG	set	4013
   295  0000                     _TXSTAbits	set	4012
   296  0000                     _RCSTAbits	set	4011
   297  0000                     _EECON2	set	4007
   298  0000                     _CCPR2H	set	4028
   299  0000                     _CCPR2L	set	4027
   300  0000                     _CCPR1H	set	4031
   301  0000                     _CCPR1L	set	4030
   302  0000                     _TRISB	set	3987
   303  0000                     _TRISAbits	set	3986
   304  0000                     _TMR3H	set	4019
   305  0000                     _TMR3L	set	4018
   306  0000                     _TMR1H	set	4047
   307  0000                     _TMR1L	set	4046
   308  0000                     _PORTBbits	set	3969
   309  0000                     _TRISC	set	3988
   310  0000                     _TRISCbits	set	3988
   311  0000                     _PIE1bits	set	3997
   312  0000                     _PORTE	set	3972
   313  0000                     _PORTD	set	3971
   314  0000                     _PORTC	set	3970
   315  0000                     _PORTB	set	3969
   316  0000                     _PORTA	set	3968
   317  0000                     _LATA	set	3977
   318  0000                     _TRISA	set	3986
   319  0000                     _PIE2bits	set	4000
   320  0000                     _CCP2CONbits	set	4026
   321  0000                     _CCP1CONbits	set	4029
   322  0000                     _PIR1bits	set	3998
   323  0000                     _ADCON2bits	set	4032
   324  0000                     _ADCON1bits	set	4033
   325  0000                     _ADCON0bits	set	4034
   326  0000                     _SSPCON1bits	set	4038
   327  0000                     _T2CONbits	set	4042
   328  0000                     _ADRESH	set	4036
   329  0000                     _ADRESL	set	4035
   330  0000                     _INTCONbits	set	4082
   331  0000                     _PR2	set	4043
   332  0000                     _EECON1bits	set	4006
   333  0000                     _EEDATA	set	4008
   334  0000                     _EEADR	set	4009
   335  0000                     _EEADRH	set	4010
   336  0000                     _PIR2bits	set	4001
   337  0000                     _TRISE	set	3990
   338  0000                     _TRISD	set	3989
   339  0000                     _LATE	set	3981
   340  0000                     _LATD	set	3980
   341  0000                     _LATC	set	3979
   342  0000                     _LATB	set	3978
   343  0000                     _SSPBUF	set	4041
   344  0000                     _SSPSTATbits	set	4039
   345  001011                     STR_7:
   346  001011  50                 	db	80	;'P'
   347  001012  72                 	db	114	;'r'
   348  001013  65                 	db	101	;'e'
   349  001014  73                 	db	115	;'s'
   350  001015  73                 	db	115	;'s'
   351  001016  20                 	db	32
   352  001017  4F                 	db	79	;'O'
   353  001018  4E                 	db	78	;'N'
   354  001019  2F                 	db	47
   355  00101A  43                 	db	67	;'C'
   356  00101B  20                 	db	32
   357  00101C  54                 	db	84	;'T'
   358  00101D  6F                 	db	111	;'o'
   359  00101E  20                 	db	32
   360  00101F  52                 	db	82	;'R'
   361  001020  65                 	db	101	;'e'
   362  001021  73                 	db	115	;'s'
   363  001022  65                 	db	101	;'e'
   364  001023  74                 	db	116	;'t'
   365  001024  20                 	db	32
   366  001025  43                 	db	67	;'C'
   367  001026  6C                 	db	108	;'l'
   368  001027  6F                 	db	111	;'o'
   369  001028  63                 	db	99	;'c'
   370  001029  6B                 	db	107	;'k'
   371  00102A  00                 	db	0
   372  00102B                     STR_6:
   373  00102B  50                 	db	80	;'P'
   374  00102C  72                 	db	114	;'r'
   375  00102D  65                 	db	101	;'e'
   376  00102E  73                 	db	115	;'s'
   377  00102F  73                 	db	115	;'s'
   378  001030  20                 	db	32
   379  001031  2B                 	db	43
   380  001032  20                 	db	32
   381  001033  54                 	db	84	;'T'
   382  001034  6F                 	db	111	;'o'
   383  001035  20                 	db	32
   384  001036  53                 	db	83	;'S'
   385  001037  65                 	db	101	;'e'
   386  001038  74                 	db	116	;'t'
   387  001039  20                 	db	32
   388  00103A  43                 	db	67	;'C'
   389  00103B  6C                 	db	108	;'l'
   390  00103C  6F                 	db	111	;'o'
   391  00103D  63                 	db	99	;'c'
   392  00103E  6B                 	db	107	;'k'
   393  00103F  00                 	db	0
   394  001040                     STR_8:
   395  001040  53                 	db	83	;'S'
   396  001041  65                 	db	101	;'e'
   397  001042  74                 	db	116	;'t'
   398  001043  74                 	db	116	;'t'
   399  001044  69                 	db	105	;'i'
   400  001045  6E                 	db	110	;'n'
   401  001046  67                 	db	103	;'g'
   402  001047  20                 	db	32
   403  001048  43                 	db	67	;'C'
   404  001049  6C                 	db	108	;'l'
   405  00104A  6F                 	db	111	;'o'
   406  00104B  63                 	db	99	;'c'
   407  00104C  6B                 	db	107	;'k'
   408  00104D  2E                 	db	46
   409  00104E  2E                 	db	46
   410  00104F  2E                 	db	46
   411  001050  00                 	db	0
   412  001051                     STR_4:
   413  001051  69                 	db	105	;'i'
   414  001052  6E                 	db	110	;'n'
   415  001053  69                 	db	105	;'i'
   416  001054  74                 	db	116	;'t'
   417  001055  69                 	db	105	;'i'
   418  001056  61                 	db	97	;'a'
   419  001057  6C                 	db	108	;'l'
   420  001058  69                 	db	105	;'i'
   421  001059  73                 	db	115	;'s'
   422  00105A  69                 	db	105	;'i'
   423  00105B  6E                 	db	110	;'n'
   424  00105C  67                 	db	103	;'g'
   425  00105D  00                 	db	0
   426  00105E                     STR_1:
   427  00105E  25                 	db	37
   428  00105F  69                 	db	105	;'i'
   429  001060  00                 	db	0
   430  001061  00                 	db	0	; dummy byte at the end
   431  0000                     
   432                           ; #config settings
   433                           
   434                           	psect	cinit
   435  00278E                     __pcinit:
   436                           	callstack 0
   437  00278E                     start_initialization:
   438                           	callstack 0
   439  00278E                     __initialization:
   440                           	callstack 0
   441                           
   442                           ; Initialize objects allocated to BANK0 (74 bytes)
   443                           ; load TBLPTR registers with __pidataBANK0
   444  00278E  0EFE               	movlw	low __pidataBANK0
   445  002790  6EF6               	movwf	tblptrl,c
   446  002792  0E28               	movlw	high __pidataBANK0
   447  002794  6EF7               	movwf	tblptrh,c
   448  002796  0E00               	movlw	low (__pidataBANK0 shr (0+16))
   449  002798  6EF8               	movwf	tblptru,c
   450  00279A  EE00  F080         	lfsr	0,__pdataBANK0
   451  00279E  EE10 F04A          	lfsr	1,74
   452  0027A2                     copy_data0:
   453  0027A2  0009               	tblrd		*+
   454  0027A4  CFF5 FFEE          	movff	tablat,postinc0
   455  0027A8  50E5               	movf	postdec1,w,c
   456  0027AA  50E1               	movf	fsr1l,w,c
   457  0027AC  E1FA               	bnz	copy_data0
   458                           
   459                           ; Initialize objects allocated to COMRAM (19 bytes)
   460                           ; load TBLPTR registers with __pidataCOMRAM
   461  0027AE  0EE6               	movlw	low __pidataCOMRAM
   462  0027B0  6EF6               	movwf	tblptrl,c
   463  0027B2  0E2A               	movlw	high __pidataCOMRAM
   464  0027B4  6EF7               	movwf	tblptrh,c
   465  0027B6  0E00               	movlw	low (__pidataCOMRAM shr (0+16))
   466  0027B8  6EF8               	movwf	tblptru,c
   467  0027BA  EE00  F05A         	lfsr	0,__pdataCOMRAM
   468  0027BE  EE10 F013          	lfsr	1,19
   469  0027C2                     copy_data1:
   470  0027C2  0009               	tblrd		*+
   471  0027C4  CFF5 FFEE          	movff	tablat,postinc0
   472  0027C8  50E5               	movf	postdec1,w,c
   473  0027CA  50E1               	movf	fsr1l,w,c
   474  0027CC  E1FA               	bnz	copy_data1
   475                           
   476                           ; Clear objects allocated to BANK0 (41 bytes)
   477  0027CE  EE00  F0CA         	lfsr	0,__pbssBANK0
   478  0027D2  0E29               	movlw	41
   479  0027D4                     clear_0:
   480  0027D4  6AEE               	clrf	postinc0,c
   481  0027D6  06E8               	decf	wreg,f,c
   482  0027D8  E1FD               	bnz	clear_0
   483                           
   484                           ; Clear objects allocated to COMRAM (52 bytes)
   485  0027DA  EE00  F001         	lfsr	0,__pbssCOMRAM
   486  0027DE  0E34               	movlw	52
   487  0027E0                     clear_1:
   488  0027E0  6AEE               	clrf	postinc0,c
   489  0027E2  06E8               	decf	wreg,f,c
   490  0027E4  E1FD               	bnz	clear_1
   491  0027E6                     end_of_initialization:
   492                           	callstack 0
   493  0027E6                     __end_of__initialization:
   494                           	callstack 0
   495  0027E6  906D               	bcf	int$flags,0,c	;clear compiler interrupt flag (level 1)
   496  0027E8  926D               	bcf	int$flags,1,c	;clear compiler interrupt flag (level 2)
   497  0027EA  0100               	movlb	0
   498  0027EC  EF31  F008         	goto	_main	;jump to C main() function
   499                           
   500                           	psect	bssCOMRAM
   501  000001                     __pbssCOMRAM:
   502                           	callstack 0
   503  000001                     _timer3_isr_preload_value:
   504                           	callstack 0
   505  000001                     	ds	2
   506  000003                     _timer1_isr_preload_value:
   507                           	callstack 0
   508  000003                     	ds	2
   509  000005                     _TMR1_InterruptHandler:
   510                           	callstack 0
   511  000005                     	ds	2
   512  000007                     _TMR0_InterruptHandler:
   513                           	callstack 0
   514  000007                     	ds	2
   515  000009                     _RB7_InterruptHandler_Low:
   516                           	callstack 0
   517  000009                     	ds	2
   518  00000B                     _RB7_InterruptHandler_High:
   519                           	callstack 0
   520  00000B                     	ds	2
   521  00000D                     _RB6_InterruptHandler_Low:
   522                           	callstack 0
   523  00000D                     	ds	2
   524  00000F                     _RB6_InterruptHandler_High:
   525                           	callstack 0
   526  00000F                     	ds	2
   527  000011                     _RB5_InterruptHandler_Low:
   528                           	callstack 0
   529  000011                     	ds	2
   530  000013                     _RB5_InterruptHandler_High:
   531                           	callstack 0
   532  000013                     	ds	2
   533  000015                     _RB4_InterruptHandler_Low:
   534                           	callstack 0
   535  000015                     	ds	2
   536  000017                     _RB4_InterruptHandler_High:
   537                           	callstack 0
   538  000017                     	ds	2
   539  000019                     _ADC_InterruptHandler:
   540                           	callstack 0
   541  000019                     	ds	2
   542  00001B                     _sixth_digit_done:
   543                           	callstack 0
   544  00001B                     	ds	1
   545  00001C                     _fifth_digit_done:
   546                           	callstack 0
   547  00001C                     	ds	1
   548  00001D                     _fourth_digit_done:
   549                           	callstack 0
   550  00001D                     	ds	1
   551  00001E                     _third_digit_done:
   552                           	callstack 0
   553  00001E                     	ds	1
   554  00001F                     _second_digit_done:
   555                           	callstack 0
   556  00001F                     	ds	1
   557  000020                     _first_digit_done:
   558                           	callstack 0
   559  000020                     	ds	1
   560  000021                     _test:
   561                           	callstack 0
   562  000021                     	ds	1
   563  000022                     _m:
   564                           	callstack 0
   565  000022                     	ds	1
   566  000023                     _hours:
   567                           	callstack 0
   568  000023                     	ds	1
   569  000024                     _l:
   570                           	callstack 0
   571  000024                     	ds	1
   572  000025                     _r:
   573                           	callstack 0
   574  000025                     	ds	1
   575  000026                     _timer2_preload:
   576                           	callstack 0
   577  000026                     	ds	1
   578  000027                     relay_Off@F2889:
   579                           	callstack 0
   580  000027                     	ds	1
   581  000028                     relay_On@F2884:
   582                           	callstack 0
   583  000028                     	ds	1
   584  000029                     relay_initialize@F2879:
   585                           	callstack 0
   586  000029                     	ds	1
   587  00002A                     led_toggle@F2896:
   588                           	callstack 0
   589  00002A                     	ds	1
   590  00002B                     led_turn_off@F2891:
   591                           	callstack 0
   592  00002B                     	ds	1
   593  00002C                     led_turn_on@F2886:
   594                           	callstack 0
   595  00002C                     	ds	1
   596  00002D                     led_initialize@F2881:
   597                           	callstack 0
   598  00002D                     	ds	1
   599  00002E                     _sixth_digit:
   600                           	callstack 0
   601  00002E                     	ds	1
   602  00002F                     _fifth_digit:
   603                           	callstack 0
   604  00002F                     	ds	1
   605  000030                     _fourth_digit:
   606                           	callstack 0
   607  000030                     	ds	1
   608  000031                     _third_digit:
   609                           	callstack 0
   610  000031                     	ds	1
   611  000032                     _second_digit:
   612                           	callstack 0
   613  000032                     	ds	1
   614  000033                     _first_digit:
   615                           	callstack 0
   616  000033                     	ds	1
   617  000034                     _key_pressed:
   618                           	callstack 0
   619  000034                     	ds	1
   620                           
   621                           	psect	dataCOMRAM
   622  00005A                     __pdataCOMRAM:
   623                           	callstack 0
   624  00005A                     _minutes:
   625                           	callstack 0
   626  00005A                     	ds	1
   627  00005B                     _seconds:
   628                           	callstack 0
   629  00005B                     	ds	1
   630  00005C                     _RB7_Flag:
   631                           	callstack 0
   632  00005C                     	ds	1
   633  00005D                     _RB6_Flag:
   634                           	callstack 0
   635  00005D                     	ds	1
   636  00005E                     _RB5_Flag:
   637                           	callstack 0
   638  00005E                     	ds	1
   639  00005F                     _RB4_Flag:
   640                           	callstack 0
   641  00005F                     	ds	1
   642  000060                     _rc6:
   643                           	callstack 0
   644  000060                     	ds	1
   645  000061                     _rc5:
   646                           	callstack 0
   647  000061                     	ds	1
   648  000062                     _rc4:
   649                           	callstack 0
   650  000062                     	ds	1
   651  000063                     _rc3:
   652                           	callstack 0
   653  000063                     	ds	1
   654  000064                     _rc2:
   655                           	callstack 0
   656  000064                     	ds	1
   657  000065                     _rc1:
   658                           	callstack 0
   659  000065                     	ds	1
   660  000066                     _rc0:
   661                           	callstack 0
   662  000066                     	ds	1
   663  000067                     _rd5:
   664                           	callstack 0
   665  000067                     	ds	1
   666  000068                     _rd4:
   667                           	callstack 0
   668  000068                     	ds	1
   669  000069                     _rd3:
   670                           	callstack 0
   671  000069                     	ds	1
   672  00006A                     _rd2:
   673                           	callstack 0
   674  00006A                     	ds	1
   675  00006B                     _rd1:
   676                           	callstack 0
   677  00006B                     	ds	1
   678  00006C                     _rd0:
   679                           	callstack 0
   680  00006C                     	ds	1
   681                           
   682                           	psect	bssBANK0
   683  0000CA                     __pbssBANK0:
   684                           	callstack 0
   685  0000CA                     	ds	7
   686  0000D1                     	ds	6
   687  0000D7                     _set_clock_array:
   688                           	callstack 0
   689  0000D7                     	ds	6
   690  0000DD                     _t_counter:
   691                           	callstack 0
   692  0000DD                     	ds	4
   693  0000E1                     _TMR3_InterruptHandler:
   694                           	callstack 0
   695  0000E1                     	ds	2
   696  0000E3                     _TMR2_InterruptHandler:
   697                           	callstack 0
   698  0000E3                     	ds	2
   699  0000E5                     _INT2_InterruptHandler:
   700                           	callstack 0
   701  0000E5                     	ds	2
   702  0000E7                     _INT1_InterruptHandler:
   703                           	callstack 0
   704  0000E7                     	ds	2
   705  0000E9                     _INT0_InterruptHandler:
   706                           	callstack 0
   707  0000E9                     	ds	2
   708  0000EB                     _RX_Handler:
   709                           	callstack 0
   710  0000EB                     	ds	2
   711  0000ED                     _TX_Handler:
   712                           	callstack 0
   713  0000ED                     	ds	2
   714  0000EF                     _CCP2_InterruptHandler:
   715                           	callstack 0
   716  0000EF                     	ds	2
   717  0000F1                     _CCP1_InterruptHandler:
   718                           	callstack 0
   719  0000F1                     	ds	2
   720                           
   721                           	psect	dataBANK0
   722  000080                     __pdataBANK0:
   723                           	callstack 0
   724  000080                     _port_registers:
   725                           	callstack 0
   726  000080                     	ds	10
   727  00008A                     _lat_registers:
   728                           	callstack 0
   729  00008A                     	ds	10
   730  000094                     _tris_registers:
   731                           	callstack 0
   732  000094                     	ds	10
   733  00009E                     _lcd_8:
   734                           	callstack 0
   735  00009E                     	ds	10
   736  0000A8                     _tmr0:
   737                           	callstack 0
   738  0000A8                     	ds	10
   739  0000B2                     _lcd_2:
   740                           	callstack 0
   741  0000B2                     	ds	10
   742  0000BC                     _keypad1:
   743                           	callstack 0
   744  0000BC                     	ds	8
   745  0000C4                     _lcd_1:
   746                           	callstack 0
   747  0000C4                     	ds	6
   748                           
   749                           	psect	cstackBANK1
   750  000100                     __pcstackBANK1:
   751                           	callstack 0
   752  000100                     main@_7_Segments_Arr_Common_Control:
   753                           	callstack 0
   754                           
   755                           ; 6 bytes @ 0x0
   756  000100                     	ds	6
   757  000106                     main@_7_Segments_Arr:
   758                           	callstack 0
   759                           
   760                           ; 7 bytes @ 0x6
   761  000106                     	ds	7
   762  00010D                     main@lcd_message:
   763                           	callstack 0
   764                           
   765                           ; 2 bytes @ 0xD
   766  00010D                     	ds	2
   767  00010F                     main@i:
   768                           	callstack 0
   769                           
   770                           ; 2 bytes @ 0xF
   771  00010F                     	ds	2
   772                           
   773                           	psect	cstackCOMRAM
   774  000035                     __pcstackCOMRAM:
   775                           	callstack 0
   776  000035                     RB4_ISR@source:
   777                           	callstack 0
   778  000035                     RB5_ISR@source:
   779                           	callstack 0
   780  000035                     RB6_ISR@source:
   781                           	callstack 0
   782  000035                     RB7_ISR@source:
   783                           	callstack 0
   784                           
   785                           ; 1 bytes @ 0x0
   786  000035                     	ds	1
   787  000036                     ??_InterruptManager:
   788                           
   789                           ; 1 bytes @ 0x1
   790  000036                     	ds	2
   791  000038                     ?___awdiv:
   792                           	callstack 0
   793  000038                     ?___awmod:
   794                           	callstack 0
   795  000038                     gpio_port_write_logic@logic:
   796                           	callstack 0
   797  000038                     gpio_pin_direction_initialize@pin_config:
   798                           	callstack 0
   799  000038                     gpio_pin_write_logic@pin_config:
   800                           	callstack 0
   801  000038                     gpio_pin_read_logic@pin_config:
   802                           	callstack 0
   803  000038                     hal_timer0_select_edge_increment@timer0:
   804                           	callstack 0
   805  000038                     hal_timer0_select_8bit_or_16bit_mode@timer0:
   806                           	callstack 0
   807  000038                     hal_timer0_enable_prescaler@timer0:
   808                           	callstack 0
   809  000038                     hal_timer0_disable_prescaler@timer0:
   810                           	callstack 0
   811  000038                     hal_timer0_set_prescaler_value@timer0:
   812                           	callstack 0
   813  000038                     hal_timer0_interrupt_enable@timer0:
   814                           	callstack 0
   815  000038                     hal_timer0_interrupt_disable@timer0:
   816                           	callstack 0
   817  000038                     hal_timer0_interrupt_handler_init@timer0:
   818                           	callstack 0
   819  000038                     ___awdiv@dividend:
   820                           	callstack 0
   821  000038                     ___awmod@dividend:
   822                           	callstack 0
   823                           
   824                           ; 2 bytes @ 0x3
   825  000038                     	ds	1
   826  000039                     ??_gpio_port_write_logic:
   827                           
   828                           ; 1 bytes @ 0x4
   829  000039                     	ds	1
   830  00003A                     ??_gpio_pin_direction_initialize:
   831  00003A                     ??_hal_timer0_set_prescaler_value:
   832  00003A                     gpio_pin_write_logic@logic:
   833                           	callstack 0
   834  00003A                     gpio_pin_read_logic@logic:
   835                           	callstack 0
   836  00003A                     ___awdiv@divisor:
   837                           	callstack 0
   838  00003A                     ___awmod@divisor:
   839                           	callstack 0
   840                           
   841                           ; 2 bytes @ 0x5
   842  00003A                     	ds	1
   843  00003B                     ??_gpio_pin_write_logic:
   844  00003B                     gpio_port_write_logic@port:
   845                           	callstack 0
   846  00003B                     hal_timer0_select_clock_source@timer0:
   847                           	callstack 0
   848                           
   849                           ; 2 bytes @ 0x6
   850  00003B                     	ds	1
   851  00003C                     ??_gpio_pin_read_logic:
   852  00003C                     ___awdiv@counter:
   853                           	callstack 0
   854  00003C                     ___awmod@counter:
   855                           	callstack 0
   856                           
   857                           ; 1 bytes @ 0x7
   858  00003C                     	ds	1
   859  00003D                     ___awdiv@sign:
   860                           	callstack 0
   861  00003D                     ___awmod@sign:
   862                           	callstack 0
   863                           
   864                           ; 1 bytes @ 0x8
   865  00003D                     	ds	1
   866  00003E                     hal_timer0_initialize@timer0:
   867                           	callstack 0
   868  00003E                     ___awdiv@quotient:
   869                           	callstack 0
   870                           
   871                           ; 2 bytes @ 0x9
   872  00003E                     	ds	2
   873  000040                     ??_hal_timer0_initialize:
   874  000040                     gpio_pin_direction_initialize@Status:
   875                           	callstack 0
   876                           
   877                           ; 1 bytes @ 0xB
   878  000040                     	ds	1
   879  000041                     gpio_pin_write_logic@Status:
   880                           	callstack 0
   881                           
   882                           ; 1 bytes @ 0xC
   883  000041                     	ds	1
   884  000042                     lcd_8bit_send_command@lcd:
   885                           	callstack 0
   886  000042                     lcd_8bit_send_char_data@lcd:
   887                           	callstack 0
   888  000042                     keypad_get_pressed_button@keypad:
   889                           	callstack 0
   890  000042                     gpio_pin_initialize@pin_config:
   891                           	callstack 0
   892                           
   893                           ; 2 bytes @ 0xD
   894  000042                     	ds	2
   895  000044                     ??_gpio_pin_initialize:
   896  000044                     lcd_8bit_send_command@command:
   897                           	callstack 0
   898  000044                     lcd_8bit_send_char_data@data:
   899                           	callstack 0
   900  000044                     keypad_get_pressed_button@button_pressed:
   901                           	callstack 0
   902                           
   903                           ; 2 bytes @ 0xF
   904  000044                     	ds	1
   905  000045                     ??_lcd_8bit_send_command:
   906  000045                     ??_lcd_8bit_send_char_data:
   907  000045                     gpio_pin_initialize@Status:
   908                           	callstack 0
   909                           
   910                           ; 1 bytes @ 0x10
   911  000045                     	ds	1
   912  000046                     ??_keypad_get_pressed_button:
   913  000046                     keypad_initialize@keypad:
   914                           	callstack 0
   915                           
   916                           ; 2 bytes @ 0x11
   917  000046                     	ds	2
   918  000048                     ??_keypad_initialize:
   919  000048                     keypad_get_pressed_button@Status:
   920                           	callstack 0
   921                           
   922                           ; 1 bytes @ 0x13
   923  000048                     	ds	1
   924  000049                     lcd_8bit_send_command@Status:
   925                           	callstack 0
   926  000049                     lcd_8bit_send_char_data@Status:
   927                           	callstack 0
   928  000049                     keypad_get_pressed_button@logic:
   929                           	callstack 0
   930                           
   931                           ; 1 bytes @ 0x14
   932  000049                     	ds	1
   933  00004A                     lcd_8bit_send_command@l_lcd_pins_counter:
   934                           	callstack 0
   935  00004A                     lcd_8bit_send_char_data@l_lcd_pins_counter:
   936                           	callstack 0
   937  00004A                     keypad_initialize@row_counter:
   938                           	callstack 0
   939  00004A                     keypad_get_pressed_button@l_counter:
   940                           	callstack 0
   941                           
   942                           ; 1 bytes @ 0x15
   943  00004A                     	ds	1
   944  00004B                     keypad_initialize@column_counter:
   945                           	callstack 0
   946  00004B                     keypad_get_pressed_button@row_number:
   947                           	callstack 0
   948  00004B                     lcd_8bit_initialize@lcd:
   949                           	callstack 0
   950  00004B                     lcd_8bit_send_string@lcd:
   951                           	callstack 0
   952  00004B                     lcd_8bit_set_cursor@lcd:
   953                           	callstack 0
   954                           
   955                           ; 2 bytes @ 0x16
   956  00004B                     	ds	1
   957  00004C                     keypad_get_pressed_button@column_number:
   958                           	callstack 0
   959                           
   960                           ; 1 bytes @ 0x17
   961  00004C                     	ds	1
   962  00004D                     ??_lcd_8bit_initialize:
   963  00004D                     lcd_8bit_set_cursor@row:
   964                           	callstack 0
   965  00004D                     lcd_8bit_send_string@str:
   966                           	callstack 0
   967                           
   968                           ; 2 bytes @ 0x18
   969  00004D                     	ds	1
   970  00004E                     lcd_8bit_set_cursor@column:
   971                           	callstack 0
   972                           
   973                           ; 1 bytes @ 0x19
   974  00004E                     	ds	1
   975  00004F                     ??_lcd_8bit_set_cursor:
   976  00004F                     lcd_8bit_initialize@l_data_pins_counter:
   977                           	callstack 0
   978  00004F                     lcd_8bit_send_string@Status:
   979                           	callstack 0
   980                           
   981                           ; 1 bytes @ 0x1A
   982  00004F                     	ds	1
   983  000050                     lcd_8bit_initialize@Status:
   984                           	callstack 0
   985                           
   986                           ; 1 bytes @ 0x1B
   987  000050                     	ds	1
   988  000051                     lcd_8bit_set_cursor@Status:
   989                           	callstack 0
   990                           
   991                           ; 1 bytes @ 0x1C
   992  000051                     	ds	1
   993  000052                     lcd_8bit_send_string_pos@lcd:
   994                           	callstack 0
   995                           
   996                           ; 2 bytes @ 0x1D
   997  000052                     	ds	2
   998  000054                     lcd_8bit_send_string_pos@row:
   999                           	callstack 0
  1000                           
  1001                           ; 1 bytes @ 0x1F
  1002  000054                     	ds	1
  1003  000055                     lcd_8bit_send_string_pos@column:
  1004                           	callstack 0
  1005                           
  1006                           ; 1 bytes @ 0x20
  1007  000055                     	ds	1
  1008  000056                     lcd_8bit_send_string_pos@str:
  1009                           	callstack 0
  1010                           
  1011                           ; 2 bytes @ 0x21
  1012  000056                     	ds	2
  1013  000058                     ??_main:
  1014                           
  1015                           ; 1 bytes @ 0x23
  1016  000058                     	ds	2
  1017                           
  1018 ;;
  1019 ;;Main: autosize = 0, tempsize = 2, incstack = 0, save=0
  1020 ;;
  1021 ;; *************** function _main *****************
  1022 ;; Defined at:
  1023 ;;		line 329 in file "application.c"
  1024 ;; Parameters:    Size  Location     Type
  1025 ;;		None
  1026 ;; Auto vars:     Size  Location     Type
  1027 ;;  i               2   15[BANK1 ] int 
  1028 ;;  _7_Segments_    7    6[BANK1 ] struct .[7]
  1029 ;;  _7_Segments_    6    0[BANK1 ] struct .[6]
  1030 ;;  lcd_message     2   13[BANK1 ] int 
  1031 ;; Return value:  Size  Location     Type
  1032 ;;                  2  1775[None  ] int 
  1033 ;; Registers used:
  1034 ;;		wreg, fsr2l, fsr2h, status,2, status,0, tblptrl, tblptrh, tblptru, prodl, prodh, cstack
  1035 ;; Tracked objects:
  1036 ;;		On entry : 0/0
  1037 ;;		On exit  : 0/0
  1038 ;;		Unchanged: 0/0
  1039 ;; Data sizes:     COMRAM   BANK0   BANK1   BANK2   BANK3   BANK4   BANK5   BANK6   BANK7   BANK8   BANK9  BANK10  BANK1
      +1  BANK12  BANK13  BANK14  BANK15
  1040 ;;      Params:         0       0       0       0       0       0       0       0       0       0       0       0       
      +0       0       0       0       0
  1041 ;;      Locals:         0       0      17       0       0       0       0       0       0       0       0       0       
      +0       0       0       0       0
  1042 ;;      Temps:          2       0       0       0       0       0       0       0       0       0       0       0       
      +0       0       0       0       0
  1043 ;;      Totals:         2       0      17       0       0       0       0       0       0       0       0       0       
      +0       0       0       0       0
  1044 ;;Total ram usage:       19 bytes
  1045 ;; Hardware stack levels required when called: 7
  1046 ;; This function calls:
  1047 ;;		___awdiv
  1048 ;;		___awmod
  1049 ;;		_gpio_pin_initialize
  1050 ;;		_gpio_pin_write_logic
  1051 ;;		_gpio_port_write_logic
  1052 ;;		_hal_timer0_initialize
  1053 ;;		_hal_timer0_interrupt_disable
  1054 ;;		_hal_timer0_interrupt_enable
  1055 ;;		_keypad_get_pressed_button
  1056 ;;		_keypad_initialize
  1057 ;;		_lcd_8bit_initialize
  1058 ;;		_lcd_8bit_send_command
  1059 ;;		_lcd_8bit_send_string_pos
  1060 ;; This function is called by:
  1061 ;;		Startup code after reset
  1062 ;; This function uses a non-reentrant model
  1063 ;;
  1064                           
  1065                           	psect	text0
  1066  001062                     __ptext0:
  1067                           	callstack 0
  1068  001062                     _main:
  1069                           	callstack 24
  1070  001062                     
  1071                           ;application.c: 330:     Pin_Config_t _7_Segments_Arr[7]={rc0,rc1,rc2,rc3,rc4,rc5,rc6};
  1072  001062  EE21  F006         	lfsr	2,main@_7_Segments_Arr
  1073  001066  0E06               	movlw	6
  1074  001068                     u9041:
  1075  001068  6ADE               	clrf	postinc2,c
  1076  00106A  06E8               	decf	wreg,f,c
  1077  00106C  E2FD               	bc	u9041
  1078  00106E  C066  F106         	movff	_rc0,main@_7_Segments_Arr
  1079  001072  C065  F107         	movff	_rc1,main@_7_Segments_Arr+1
  1080  001076  C064  F108         	movff	_rc2,main@_7_Segments_Arr+2
  1081  00107A  C063  F109         	movff	_rc3,main@_7_Segments_Arr+3
  1082  00107E  C062  F10A         	movff	_rc4,main@_7_Segments_Arr+4
  1083  001082  C061  F10B         	movff	_rc5,main@_7_Segments_Arr+5
  1084  001086  C060  F10C         	movff	_rc6,main@_7_Segments_Arr+6
  1085                           
  1086                           ;application.c: 331:     Pin_Config_t _7_Segments_Arr_Common_Control[6] = {rd0,rd1,rd2,r
      +                          d3,rd4,rd5};
  1087  00108A  EE21  F000         	lfsr	2,main@_7_Segments_Arr_Common_Control
  1088  00108E  0E05               	movlw	5
  1089  001090                     u9051:
  1090  001090  6ADE               	clrf	postinc2,c
  1091  001092  06E8               	decf	wreg,f,c
  1092  001094  E2FD               	bc	u9051
  1093  001096  C06C  F100         	movff	_rd0,main@_7_Segments_Arr_Common_Control
  1094  00109A  C06B  F101         	movff	_rd1,main@_7_Segments_Arr_Common_Control+1
  1095  00109E  C06A  F102         	movff	_rd2,main@_7_Segments_Arr_Common_Control+2
  1096  0010A2  C069  F103         	movff	_rd3,main@_7_Segments_Arr_Common_Control+3
  1097  0010A6  C068  F104         	movff	_rd4,main@_7_Segments_Arr_Common_Control+4
  1098  0010AA  C067  F105         	movff	_rd5,main@_7_Segments_Arr_Common_Control+5
  1099  0010AE                     
  1100                           ;application.c: 332:     lcd_8bit_initialize(&lcd_8);
  1101  0010AE  0E9E               	movlw	low _lcd_8
  1102  0010B0  6E4B               	movwf	lcd_8bit_initialize@lcd^0,c
  1103  0010B2  0E00               	movlw	high _lcd_8
  1104  0010B4  6E4C               	movwf	(lcd_8bit_initialize@lcd+1)^0,c
  1105  0010B6  EC7D  F00E         	call	_lcd_8bit_initialize	;wreg free
  1106  0010BA                     
  1107                           ;application.c: 333:    lcd_8bit_send_string_pos(&lcd_8,1,1,"initialising");
  1108  0010BA  0E9E               	movlw	low _lcd_8
  1109  0010BC  6E52               	movwf	lcd_8bit_send_string_pos@lcd^0,c
  1110  0010BE  0E00               	movlw	high _lcd_8
  1111  0010C0  6E53               	movwf	(lcd_8bit_send_string_pos@lcd+1)^0,c
  1112  0010C2  0E01               	movlw	1
  1113  0010C4  6E54               	movwf	lcd_8bit_send_string_pos@row^0,c
  1114  0010C6  0E01               	movlw	1
  1115  0010C8  6E55               	movwf	lcd_8bit_send_string_pos@column^0,c
  1116  0010CA  0E51               	movlw	low STR_4
  1117  0010CC  6E56               	movwf	lcd_8bit_send_string_pos@str^0,c
  1118  0010CE  0E10               	movlw	high STR_4
  1119  0010D0  6E57               	movwf	(lcd_8bit_send_string_pos@str+1)^0,c
  1120  0010D2  ECF8  F013         	call	_lcd_8bit_send_string_pos	;wreg free
  1121  0010D6                     
  1122                           ;application.c: 334:     for(int i = 0 ; i < 5; i++){
  1123  0010D6  0E00               	movlw	0
  1124  0010D8  0101               	movlb	1	; () banked
  1125  0010DA  6F10               	movwf	(main@i+1)& (0+255),b
  1126  0010DC  0E00               	movlw	0
  1127  0010DE  6F0F               	movwf	main@i& (0+255),b
  1128  0010E0                     l9852:
  1129                           
  1130                           ; BSR set to: 1
  1131                           ;application.c: 336:         lcd_8bit_send_string_pos(&lcd_8,1,13+i,".");
  1132  0010E0  0E9E               	movlw	low _lcd_8
  1133  0010E2  6E52               	movwf	lcd_8bit_send_string_pos@lcd^0,c
  1134  0010E4  0E00               	movlw	high _lcd_8
  1135  0010E6  6E53               	movwf	(lcd_8bit_send_string_pos@lcd+1)^0,c
  1136  0010E8  0E01               	movlw	1
  1137  0010EA  6E54               	movwf	lcd_8bit_send_string_pos@row^0,c
  1138  0010EC  510F               	movf	main@i& (0+255),w,b
  1139  0010EE  0F0D               	addlw	13
  1140  0010F0  6E55               	movwf	lcd_8bit_send_string_pos@column^0,c
  1141  0010F2  0E4F               	movlw	low (STR_8+15)
  1142  0010F4  6E56               	movwf	lcd_8bit_send_string_pos@str^0,c
  1143  0010F6  0E10               	movlw	high (STR_8+15)
  1144  0010F8  6E57               	movwf	(lcd_8bit_send_string_pos@str+1)^0,c
  1145  0010FA  ECF8  F013         	call	_lcd_8bit_send_string_pos	;wreg free
  1146  0010FE                     
  1147                           ;application.c: 337:         _delay((unsigned long)((200)*(8000000/4000.0)));
  1148  0010FE  0E03               	movlw	3
  1149  001100  6E59               	movwf	(??_main+1)^0,c
  1150  001102  0E08               	movlw	8
  1151  001104  6E58               	movwf	??_main^0,c
  1152  001106  0E77               	movlw	119
  1153  001108                     u9197:
  1154  001108  2EE8               	decfsz	wreg,f,c
  1155  00110A  D7FE               	bra	u9197
  1156  00110C  2E58               	decfsz	??_main^0,f,c
  1157  00110E  D7FC               	bra	u9197
  1158  001110  2E59               	decfsz	(??_main+1)^0,f,c
  1159  001112  D7FA               	bra	u9197
  1160  001114  F000               	nop	
  1161  001116                     
  1162                           ;application.c: 339:     }
  1163  001116  0101               	movlb	1	; () banked
  1164  001118  4B0F               	infsnz	main@i& (0+255),f,b
  1165  00111A  2B10               	incf	(main@i+1)& (0+255),f,b
  1166  00111C                     
  1167                           ; BSR set to: 1
  1168  00111C  BF10               	btfsc	(main@i+1)& (0+255),7,b
  1169  00111E  EF9A  F008         	goto	u9061
  1170  001122  5110               	movf	(main@i+1)& (0+255),w,b
  1171  001124  E109               	bnz	u9060
  1172  001126  0E05               	movlw	5
  1173  001128  5D0F               	subwf	main@i& (0+255),w,b
  1174  00112A  A0D8               	btfss	status,0,c
  1175  00112C  EF9A  F008         	goto	u9061
  1176  001130  EF9C  F008         	goto	u9060
  1177  001134                     u9061:
  1178  001134  EF70  F008         	goto	l9852
  1179  001138                     u9060:
  1180  001138                     
  1181                           ; BSR set to: 1
  1182                           ;application.c: 340:     keypad_initialize(&keypad1);
  1183  001138  0EBC               	movlw	low _keypad1
  1184  00113A  6E46               	movwf	keypad_initialize@keypad^0,c
  1185  00113C  0E00               	movlw	high _keypad1
  1186  00113E  6E47               	movwf	(keypad_initialize@keypad+1)^0,c
  1187  001140  EC26  F013         	call	_keypad_initialize	;wreg free
  1188                           
  1189                           ;application.c: 343:     gpio_pin_initialize(&rc0);
  1190  001144  0E66               	movlw	low _rc0
  1191  001146  6E42               	movwf	gpio_pin_initialize@pin_config^0,c
  1192  001148  0E00               	movlw	high _rc0
  1193  00114A  6E43               	movwf	(gpio_pin_initialize@pin_config+1)^0,c
  1194  00114C  EC5E  F013         	call	_gpio_pin_initialize	;wreg free
  1195                           
  1196                           ;application.c: 344:     gpio_pin_initialize(&rc1);
  1197  001150  0E65               	movlw	low _rc1
  1198  001152  6E42               	movwf	gpio_pin_initialize@pin_config^0,c
  1199  001154  0E00               	movlw	high _rc1
  1200  001156  6E43               	movwf	(gpio_pin_initialize@pin_config+1)^0,c
  1201  001158  EC5E  F013         	call	_gpio_pin_initialize	;wreg free
  1202                           
  1203                           ;application.c: 345:     gpio_pin_initialize(&rc2);
  1204  00115C  0E64               	movlw	low _rc2
  1205  00115E  6E42               	movwf	gpio_pin_initialize@pin_config^0,c
  1206  001160  0E00               	movlw	high _rc2
  1207  001162  6E43               	movwf	(gpio_pin_initialize@pin_config+1)^0,c
  1208  001164  EC5E  F013         	call	_gpio_pin_initialize	;wreg free
  1209                           
  1210                           ;application.c: 346:     gpio_pin_initialize(&rc3);
  1211  001168  0E63               	movlw	low _rc3
  1212  00116A  6E42               	movwf	gpio_pin_initialize@pin_config^0,c
  1213  00116C  0E00               	movlw	high _rc3
  1214  00116E  6E43               	movwf	(gpio_pin_initialize@pin_config+1)^0,c
  1215  001170  EC5E  F013         	call	_gpio_pin_initialize	;wreg free
  1216                           
  1217                           ;application.c: 347:     gpio_pin_initialize(&rc4);
  1218  001174  0E62               	movlw	low _rc4
  1219  001176  6E42               	movwf	gpio_pin_initialize@pin_config^0,c
  1220  001178  0E00               	movlw	high _rc4
  1221  00117A  6E43               	movwf	(gpio_pin_initialize@pin_config+1)^0,c
  1222  00117C  EC5E  F013         	call	_gpio_pin_initialize	;wreg free
  1223                           
  1224                           ;application.c: 348:     gpio_pin_initialize(&rc5);
  1225  001180  0E61               	movlw	low _rc5
  1226  001182  6E42               	movwf	gpio_pin_initialize@pin_config^0,c
  1227  001184  0E00               	movlw	high _rc5
  1228  001186  6E43               	movwf	(gpio_pin_initialize@pin_config+1)^0,c
  1229  001188  EC5E  F013         	call	_gpio_pin_initialize	;wreg free
  1230                           
  1231                           ;application.c: 349:     gpio_pin_initialize(&rc6);
  1232  00118C  0E60               	movlw	low _rc6
  1233  00118E  6E42               	movwf	gpio_pin_initialize@pin_config^0,c
  1234  001190  0E00               	movlw	high _rc6
  1235  001192  6E43               	movwf	(gpio_pin_initialize@pin_config+1)^0,c
  1236  001194  EC5E  F013         	call	_gpio_pin_initialize	;wreg free
  1237                           
  1238                           ;application.c: 351:     gpio_pin_initialize(&rd0);
  1239  001198  0E6C               	movlw	low _rd0
  1240  00119A  6E42               	movwf	gpio_pin_initialize@pin_config^0,c
  1241  00119C  0E00               	movlw	high _rd0
  1242  00119E  6E43               	movwf	(gpio_pin_initialize@pin_config+1)^0,c
  1243  0011A0  EC5E  F013         	call	_gpio_pin_initialize	;wreg free
  1244                           
  1245                           ;application.c: 352:     gpio_pin_initialize(&rd1);
  1246  0011A4  0E6B               	movlw	low _rd1
  1247  0011A6  6E42               	movwf	gpio_pin_initialize@pin_config^0,c
  1248  0011A8  0E00               	movlw	high _rd1
  1249  0011AA  6E43               	movwf	(gpio_pin_initialize@pin_config+1)^0,c
  1250  0011AC  EC5E  F013         	call	_gpio_pin_initialize	;wreg free
  1251                           
  1252                           ;application.c: 353:     gpio_pin_initialize(&rd2);
  1253  0011B0  0E6A               	movlw	low _rd2
  1254  0011B2  6E42               	movwf	gpio_pin_initialize@pin_config^0,c
  1255  0011B4  0E00               	movlw	high _rd2
  1256  0011B6  6E43               	movwf	(gpio_pin_initialize@pin_config+1)^0,c
  1257  0011B8  EC5E  F013         	call	_gpio_pin_initialize	;wreg free
  1258                           
  1259                           ;application.c: 354:     gpio_pin_initialize(&rd3);
  1260  0011BC  0E69               	movlw	low _rd3
  1261  0011BE  6E42               	movwf	gpio_pin_initialize@pin_config^0,c
  1262  0011C0  0E00               	movlw	high _rd3
  1263  0011C2  6E43               	movwf	(gpio_pin_initialize@pin_config+1)^0,c
  1264  0011C4  EC5E  F013         	call	_gpio_pin_initialize	;wreg free
  1265                           
  1266                           ;application.c: 355:     gpio_pin_initialize(&rd4);
  1267  0011C8  0E68               	movlw	low _rd4
  1268  0011CA  6E42               	movwf	gpio_pin_initialize@pin_config^0,c
  1269  0011CC  0E00               	movlw	high _rd4
  1270  0011CE  6E43               	movwf	(gpio_pin_initialize@pin_config+1)^0,c
  1271  0011D0  EC5E  F013         	call	_gpio_pin_initialize	;wreg free
  1272                           
  1273                           ;application.c: 356:     gpio_pin_initialize(&rd5);
  1274  0011D4  0E67               	movlw	low _rd5
  1275  0011D6  6E42               	movwf	gpio_pin_initialize@pin_config^0,c
  1276  0011D8  0E00               	movlw	high _rd5
  1277  0011DA  6E43               	movwf	(gpio_pin_initialize@pin_config+1)^0,c
  1278  0011DC  EC5E  F013         	call	_gpio_pin_initialize	;wreg free
  1279  0011E0                     
  1280                           ;application.c: 359:     hal_timer0_initialize(&tmr0);
  1281  0011E0  0EA8               	movlw	low _tmr0
  1282  0011E2  6E3E               	movwf	hal_timer0_initialize@timer0^0,c
  1283  0011E4  0E00               	movlw	high _tmr0
  1284  0011E6  6E3F               	movwf	(hal_timer0_initialize@timer0+1)^0,c
  1285  0011E8  EC96  F00F         	call	_hal_timer0_initialize	;wreg free
  1286  0011EC                     
  1287                           ;application.c: 361:     lcd_8bit_send_command(&lcd_8,0x01);
  1288  0011EC  0E9E               	movlw	low _lcd_8
  1289  0011EE  6E42               	movwf	lcd_8bit_send_command@lcd^0,c
  1290  0011F0  0E00               	movlw	high _lcd_8
  1291  0011F2  6E43               	movwf	(lcd_8bit_send_command@lcd+1)^0,c
  1292  0011F4  0E01               	movlw	1
  1293  0011F6  6E44               	movwf	lcd_8bit_send_command@command^0,c
  1294  0011F8  EC94  F011         	call	_lcd_8bit_send_command	;wreg free
  1295  0011FC                     
  1296                           ;application.c: 365:         int lcd_message = 1;
  1297  0011FC  0E00               	movlw	0
  1298  0011FE  0101               	movlb	1	; () banked
  1299  001200  6F0E               	movwf	(main@lcd_message+1)& (0+255),b
  1300  001202  0E01               	movlw	1
  1301  001204  6F0D               	movwf	main@lcd_message& (0+255),b
  1302  001206                     l9868:
  1303                           
  1304                           ;application.c: 368:         keypad_get_pressed_button(&keypad1,&key_pressed);
  1305  001206  0EBC               	movlw	low _keypad1
  1306  001208  6E42               	movwf	keypad_get_pressed_button@keypad^0,c
  1307  00120A  0E00               	movlw	high _keypad1
  1308  00120C  6E43               	movwf	(keypad_get_pressed_button@keypad+1)^0,c
  1309  00120E  0E34               	movlw	low _key_pressed
  1310  001210  6E44               	movwf	keypad_get_pressed_button@button_pressed^0,c
  1311  001212  0E00               	movlw	high _key_pressed
  1312  001214  6E45               	movwf	(keypad_get_pressed_button@button_pressed+1)^0,c
  1313  001216  EC0D  F00F         	call	_keypad_get_pressed_button	;wreg free
  1314  00121A                     
  1315                           ;application.c: 369:         if(lcd_message == 1){
  1316  00121A  0101               	movlb	1	; () banked
  1317  00121C  050D               	decf	main@lcd_message& (0+255),w,b
  1318  00121E  110E               	iorwf	(main@lcd_message+1)& (0+255),w,b
  1319  001220  A4D8               	btfss	status,2,c
  1320  001222  EF15  F009         	goto	u9071
  1321  001226  EF17  F009         	goto	u9070
  1322  00122A                     u9071:
  1323  00122A  EF40  F009         	goto	l9880
  1324  00122E                     u9070:
  1325  00122E                     
  1326                           ; BSR set to: 1
  1327                           ;application.c: 370:             lcd_8bit_send_command(&lcd_8,0x01);
  1328  00122E  0E9E               	movlw	low _lcd_8
  1329  001230  6E42               	movwf	lcd_8bit_send_command@lcd^0,c
  1330  001232  0E00               	movlw	high _lcd_8
  1331  001234  6E43               	movwf	(lcd_8bit_send_command@lcd+1)^0,c
  1332  001236  0E01               	movlw	1
  1333  001238  6E44               	movwf	lcd_8bit_send_command@command^0,c
  1334  00123A  EC94  F011         	call	_lcd_8bit_send_command	;wreg free
  1335  00123E                     
  1336                           ;application.c: 371:             lcd_8bit_send_string_pos(&lcd_8,1,1,"Press + To Set Clo
      +                          ck");
  1337  00123E  0E9E               	movlw	low _lcd_8
  1338  001240  6E52               	movwf	lcd_8bit_send_string_pos@lcd^0,c
  1339  001242  0E00               	movlw	high _lcd_8
  1340  001244  6E53               	movwf	(lcd_8bit_send_string_pos@lcd+1)^0,c
  1341  001246  0E01               	movlw	1
  1342  001248  6E54               	movwf	lcd_8bit_send_string_pos@row^0,c
  1343  00124A  0E01               	movlw	1
  1344  00124C  6E55               	movwf	lcd_8bit_send_string_pos@column^0,c
  1345  00124E  0E2B               	movlw	low STR_6
  1346  001250  6E56               	movwf	lcd_8bit_send_string_pos@str^0,c
  1347  001252  0E10               	movlw	high STR_6
  1348  001254  6E57               	movwf	(lcd_8bit_send_string_pos@str+1)^0,c
  1349  001256  ECF8  F013         	call	_lcd_8bit_send_string_pos	;wreg free
  1350  00125A                     
  1351                           ;application.c: 372:             lcd_8bit_send_string_pos(&lcd_8,2,1,"Press ON/C To Rese
      +                          t Clock");
  1352  00125A  0E9E               	movlw	low _lcd_8
  1353  00125C  6E52               	movwf	lcd_8bit_send_string_pos@lcd^0,c
  1354  00125E  0E00               	movlw	high _lcd_8
  1355  001260  6E53               	movwf	(lcd_8bit_send_string_pos@lcd+1)^0,c
  1356  001262  0E02               	movlw	2
  1357  001264  6E54               	movwf	lcd_8bit_send_string_pos@row^0,c
  1358  001266  0E01               	movlw	1
  1359  001268  6E55               	movwf	lcd_8bit_send_string_pos@column^0,c
  1360  00126A  0E11               	movlw	low STR_7
  1361  00126C  6E56               	movwf	lcd_8bit_send_string_pos@str^0,c
  1362  00126E  0E10               	movlw	high STR_7
  1363  001270  6E57               	movwf	(lcd_8bit_send_string_pos@str+1)^0,c
  1364  001272  ECF8  F013         	call	_lcd_8bit_send_string_pos	;wreg free
  1365  001276                     
  1366                           ;application.c: 373:             lcd_message = 0;
  1367  001276  0E00               	movlw	0
  1368  001278  0101               	movlb	1	; () banked
  1369  00127A  6F0E               	movwf	(main@lcd_message+1)& (0+255),b
  1370  00127C  0E00               	movlw	0
  1371  00127E  6F0D               	movwf	main@lcd_message& (0+255),b
  1372  001280                     l9880:
  1373                           
  1374                           ; BSR set to: 1
  1375                           ;application.c: 375:         if(key_pressed == '#'){
  1376  001280  0E23               	movlw	35
  1377  001282  1834               	xorwf	_key_pressed^0,w,c	;volatile
  1378  001284  A4D8               	btfss	status,2,c
  1379  001286  EF47  F009         	goto	u9081
  1380  00128A  EF49  F009         	goto	u9080
  1381  00128E                     u9081:
  1382  00128E  EF53  F009         	goto	l9884
  1383  001292                     u9080:
  1384  001292                     
  1385                           ; BSR set to: 1
  1386                           ;application.c: 376:             minutes = 0;
  1387  001292  0E00               	movlw	0
  1388  001294  6E5A               	movwf	_minutes^0,c	;volatile
  1389                           
  1390                           ;application.c: 377:             seconds = 0;
  1391  001296  0E00               	movlw	0
  1392  001298  6E5B               	movwf	_seconds^0,c	;volatile
  1393                           
  1394                           ;application.c: 378:             hours = 0;
  1395  00129A  0E00               	movlw	0
  1396  00129C  6E23               	movwf	_hours^0,c	;volatile
  1397                           
  1398                           ;application.c: 379:             key_pressed = '*';
  1399  00129E  0E2A               	movlw	42
  1400  0012A0  6E34               	movwf	_key_pressed^0,c	;volatile
  1401                           
  1402                           ;application.c: 380:         }
  1403  0012A2  EF03  F009         	goto	l9868
  1404  0012A6                     l9884:
  1405                           
  1406                           ; BSR set to: 1
  1407  0012A6  0E2B               	movlw	43
  1408  0012A8  1834               	xorwf	_key_pressed^0,w,c	;volatile
  1409  0012AA  A4D8               	btfss	status,2,c
  1410  0012AC  EF5A  F009         	goto	u9091
  1411  0012B0  EF5C  F009         	goto	u9090
  1412  0012B4                     u9091:
  1413  0012B4  EF82  F00A         	goto	l9952
  1414  0012B8                     u9090:
  1415  0012B8                     
  1416                           ; BSR set to: 1
  1417                           ;application.c: 382:             lcd_8bit_send_command(&lcd_8,0x01);
  1418  0012B8  0E9E               	movlw	low _lcd_8
  1419  0012BA  6E42               	movwf	lcd_8bit_send_command@lcd^0,c
  1420  0012BC  0E00               	movlw	high _lcd_8
  1421  0012BE  6E43               	movwf	(lcd_8bit_send_command@lcd+1)^0,c
  1422  0012C0  0E01               	movlw	1
  1423  0012C2  6E44               	movwf	lcd_8bit_send_command@command^0,c
  1424  0012C4  EC94  F011         	call	_lcd_8bit_send_command	;wreg free
  1425  0012C8                     
  1426                           ;application.c: 383:             lcd_8bit_send_string_pos(&lcd_8,1,1,"Setting Clock...")
      +                          ;
  1427  0012C8  0E9E               	movlw	low _lcd_8
  1428  0012CA  6E52               	movwf	lcd_8bit_send_string_pos@lcd^0,c
  1429  0012CC  0E00               	movlw	high _lcd_8
  1430  0012CE  6E53               	movwf	(lcd_8bit_send_string_pos@lcd+1)^0,c
  1431  0012D0  0E01               	movlw	1
  1432  0012D2  6E54               	movwf	lcd_8bit_send_string_pos@row^0,c
  1433  0012D4  0E01               	movlw	1
  1434  0012D6  6E55               	movwf	lcd_8bit_send_string_pos@column^0,c
  1435  0012D8  0E40               	movlw	low STR_8
  1436  0012DA  6E56               	movwf	lcd_8bit_send_string_pos@str^0,c
  1437  0012DC  0E10               	movlw	high STR_8
  1438  0012DE  6E57               	movwf	(lcd_8bit_send_string_pos@str+1)^0,c
  1439  0012E0  ECF8  F013         	call	_lcd_8bit_send_string_pos	;wreg free
  1440  0012E4                     
  1441                           ;application.c: 384:             hal_timer0_interrupt_disable(&tmr0);
  1442  0012E4  0EA8               	movlw	low _tmr0
  1443  0012E6  6E38               	movwf	hal_timer0_interrupt_disable@timer0^0,c
  1444  0012E8  0E00               	movlw	high _tmr0
  1445  0012EA  6E39               	movwf	(hal_timer0_interrupt_disable@timer0+1)^0,c
  1446  0012EC  EC32  F015         	call	_hal_timer0_interrupt_disable	;wreg free
  1447  0012F0                     
  1448                           ;application.c: 385:             _delay((unsigned long)((300)*(8000000/4000.0)));
  1449  0012F0  0E04               	movlw	4
  1450  0012F2  6E59               	movwf	(??_main+1)^0,c
  1451  0012F4  0E0C               	movlw	12
  1452  0012F6  6E58               	movwf	??_main^0,c
  1453  0012F8  0E34               	movlw	52
  1454  0012FA                     u9207:
  1455  0012FA  2EE8               	decfsz	wreg,f,c
  1456  0012FC  D7FE               	bra	u9207
  1457  0012FE  2E58               	decfsz	??_main^0,f,c
  1458  001300  D7FC               	bra	u9207
  1459  001302  2E59               	decfsz	(??_main+1)^0,f,c
  1460  001304  D7FA               	bra	u9207
  1461  001306                     l9894:
  1462                           
  1463                           ;application.c: 387:                 first_digit_done = keypad_get_pressed_button(&keypa
      +                          d1,&first_digit);
  1464  001306  0EBC               	movlw	low _keypad1
  1465  001308  6E42               	movwf	keypad_get_pressed_button@keypad^0,c
  1466  00130A  0E00               	movlw	high _keypad1
  1467  00130C  6E43               	movwf	(keypad_get_pressed_button@keypad+1)^0,c
  1468  00130E  0E33               	movlw	low _first_digit
  1469  001310  6E44               	movwf	keypad_get_pressed_button@button_pressed^0,c
  1470  001312  0E00               	movlw	high _first_digit
  1471  001314  6E45               	movwf	(keypad_get_pressed_button@button_pressed+1)^0,c
  1472  001316  EC0D  F00F         	call	_keypad_get_pressed_button	;wreg free
  1473  00131A  6E20               	movwf	_first_digit_done^0,c
  1474  00131C                     
  1475                           ;application.c: 388:             }while(first_digit_done == 0);
  1476  00131C  5020               	movf	_first_digit_done^0,w,c
  1477  00131E  B4D8               	btfsc	status,2,c
  1478  001320  EF94  F009         	goto	u9101
  1479  001324  EF96  F009         	goto	u9100
  1480  001328                     u9101:
  1481  001328  EF83  F009         	goto	l9894
  1482  00132C                     u9100:
  1483  00132C                     
  1484                           ;application.c: 389:             set_clock_array[0] = first_digit;
  1485  00132C  C033  F0D7         	movff	_first_digit,_set_clock_array	;volatile
  1486  001330                     
  1487                           ;application.c: 390:             _delay((unsigned long)((300)*(8000000/4000.0)));
  1488  001330  0E04               	movlw	4
  1489  001332  6E59               	movwf	(??_main+1)^0,c
  1490  001334  0E0C               	movlw	12
  1491  001336  6E58               	movwf	??_main^0,c
  1492  001338  0E34               	movlw	52
  1493  00133A                     u9217:
  1494  00133A  2EE8               	decfsz	wreg,f,c
  1495  00133C  D7FE               	bra	u9217
  1496  00133E  2E58               	decfsz	??_main^0,f,c
  1497  001340  D7FC               	bra	u9217
  1498  001342  2E59               	decfsz	(??_main+1)^0,f,c
  1499  001344  D7FA               	bra	u9217
  1500  001346                     l9900:
  1501                           
  1502                           ;application.c: 394:                 second_digit_done = keypad_get_pressed_button(&keyp
      +                          ad1,&second_digit);
  1503  001346  0EBC               	movlw	low _keypad1
  1504  001348  6E42               	movwf	keypad_get_pressed_button@keypad^0,c
  1505  00134A  0E00               	movlw	high _keypad1
  1506  00134C  6E43               	movwf	(keypad_get_pressed_button@keypad+1)^0,c
  1507  00134E  0E32               	movlw	low _second_digit
  1508  001350  6E44               	movwf	keypad_get_pressed_button@button_pressed^0,c
  1509  001352  0E00               	movlw	high _second_digit
  1510  001354  6E45               	movwf	(keypad_get_pressed_button@button_pressed+1)^0,c
  1511  001356  EC0D  F00F         	call	_keypad_get_pressed_button	;wreg free
  1512  00135A  6E1F               	movwf	_second_digit_done^0,c
  1513  00135C                     
  1514                           ;application.c: 395:             }while(second_digit_done == 0);
  1515  00135C  501F               	movf	_second_digit_done^0,w,c
  1516  00135E  B4D8               	btfsc	status,2,c
  1517  001360  EFB4  F009         	goto	u9111
  1518  001364  EFB6  F009         	goto	u9110
  1519  001368                     u9111:
  1520  001368  EFA3  F009         	goto	l9900
  1521  00136C                     u9110:
  1522  00136C                     
  1523                           ;application.c: 396:             set_clock_array[1] = second_digit;
  1524  00136C  C032  F0D8         	movff	_second_digit,_set_clock_array+1	;volatile
  1525  001370                     
  1526                           ;application.c: 397:            _delay((unsigned long)((300)*(8000000/4000.0)));
  1527  001370  0E04               	movlw	4
  1528  001372  6E59               	movwf	(??_main+1)^0,c
  1529  001374  0E0C               	movlw	12
  1530  001376  6E58               	movwf	??_main^0,c
  1531  001378  0E34               	movlw	52
  1532  00137A                     u9227:
  1533  00137A  2EE8               	decfsz	wreg,f,c
  1534  00137C  D7FE               	bra	u9227
  1535  00137E  2E58               	decfsz	??_main^0,f,c
  1536  001380  D7FC               	bra	u9227
  1537  001382  2E59               	decfsz	(??_main+1)^0,f,c
  1538  001384  D7FA               	bra	u9227
  1539  001386                     l9906:
  1540                           
  1541                           ;application.c: 400:                 third_digit_done = keypad_get_pressed_button(&keypa
      +                          d1,&third_digit);
  1542  001386  0EBC               	movlw	low _keypad1
  1543  001388  6E42               	movwf	keypad_get_pressed_button@keypad^0,c
  1544  00138A  0E00               	movlw	high _keypad1
  1545  00138C  6E43               	movwf	(keypad_get_pressed_button@keypad+1)^0,c
  1546  00138E  0E31               	movlw	low _third_digit
  1547  001390  6E44               	movwf	keypad_get_pressed_button@button_pressed^0,c
  1548  001392  0E00               	movlw	high _third_digit
  1549  001394  6E45               	movwf	(keypad_get_pressed_button@button_pressed+1)^0,c
  1550  001396  EC0D  F00F         	call	_keypad_get_pressed_button	;wreg free
  1551  00139A  6E1E               	movwf	_third_digit_done^0,c
  1552  00139C                     
  1553                           ;application.c: 401:             }while(third_digit_done == 0);
  1554  00139C  501E               	movf	_third_digit_done^0,w,c
  1555  00139E  B4D8               	btfsc	status,2,c
  1556  0013A0  EFD4  F009         	goto	u9121
  1557  0013A4  EFD6  F009         	goto	u9120
  1558  0013A8                     u9121:
  1559  0013A8  EFC3  F009         	goto	l9906
  1560  0013AC                     u9120:
  1561  0013AC                     
  1562                           ;application.c: 402:             set_clock_array[2] = third_digit;
  1563  0013AC  C031  F0D9         	movff	_third_digit,_set_clock_array+2	;volatile
  1564  0013B0                     
  1565                           ;application.c: 404:            _delay((unsigned long)((300)*(8000000/4000.0)));
  1566  0013B0  0E04               	movlw	4
  1567  0013B2  6E59               	movwf	(??_main+1)^0,c
  1568  0013B4  0E0C               	movlw	12
  1569  0013B6  6E58               	movwf	??_main^0,c
  1570  0013B8  0E34               	movlw	52
  1571  0013BA                     u9237:
  1572  0013BA  2EE8               	decfsz	wreg,f,c
  1573  0013BC  D7FE               	bra	u9237
  1574  0013BE  2E58               	decfsz	??_main^0,f,c
  1575  0013C0  D7FC               	bra	u9237
  1576  0013C2  2E59               	decfsz	(??_main+1)^0,f,c
  1577  0013C4  D7FA               	bra	u9237
  1578  0013C6                     l9912:
  1579                           
  1580                           ;application.c: 407:                 fourth_digit_done = keypad_get_pressed_button(&keyp
      +                          ad1,&fourth_digit);
  1581  0013C6  0EBC               	movlw	low _keypad1
  1582  0013C8  6E42               	movwf	keypad_get_pressed_button@keypad^0,c
  1583  0013CA  0E00               	movlw	high _keypad1
  1584  0013CC  6E43               	movwf	(keypad_get_pressed_button@keypad+1)^0,c
  1585  0013CE  0E30               	movlw	low _fourth_digit
  1586  0013D0  6E44               	movwf	keypad_get_pressed_button@button_pressed^0,c
  1587  0013D2  0E00               	movlw	high _fourth_digit
  1588  0013D4  6E45               	movwf	(keypad_get_pressed_button@button_pressed+1)^0,c
  1589  0013D6  EC0D  F00F         	call	_keypad_get_pressed_button	;wreg free
  1590  0013DA  6E1D               	movwf	_fourth_digit_done^0,c
  1591  0013DC                     
  1592                           ;application.c: 408:             }while(fourth_digit_done == 0);
  1593  0013DC  501D               	movf	_fourth_digit_done^0,w,c
  1594  0013DE  B4D8               	btfsc	status,2,c
  1595  0013E0  EFF4  F009         	goto	u9131
  1596  0013E4  EFF6  F009         	goto	u9130
  1597  0013E8                     u9131:
  1598  0013E8  EFE3  F009         	goto	l9912
  1599  0013EC                     u9130:
  1600  0013EC                     
  1601                           ;application.c: 409:             set_clock_array[3] = fourth_digit;
  1602  0013EC  C030  F0DA         	movff	_fourth_digit,_set_clock_array+3	;volatile
  1603  0013F0                     
  1604                           ;application.c: 410:            _delay((unsigned long)((300)*(8000000/4000.0)));
  1605  0013F0  0E04               	movlw	4
  1606  0013F2  6E59               	movwf	(??_main+1)^0,c
  1607  0013F4  0E0C               	movlw	12
  1608  0013F6  6E58               	movwf	??_main^0,c
  1609  0013F8  0E34               	movlw	52
  1610  0013FA                     u9247:
  1611  0013FA  2EE8               	decfsz	wreg,f,c
  1612  0013FC  D7FE               	bra	u9247
  1613  0013FE  2E58               	decfsz	??_main^0,f,c
  1614  001400  D7FC               	bra	u9247
  1615  001402  2E59               	decfsz	(??_main+1)^0,f,c
  1616  001404  D7FA               	bra	u9247
  1617  001406                     l9918:
  1618                           
  1619                           ;application.c: 413:                 fifth_digit_done = keypad_get_pressed_button(&keypa
      +                          d1,&fifth_digit);
  1620  001406  0EBC               	movlw	low _keypad1
  1621  001408  6E42               	movwf	keypad_get_pressed_button@keypad^0,c
  1622  00140A  0E00               	movlw	high _keypad1
  1623  00140C  6E43               	movwf	(keypad_get_pressed_button@keypad+1)^0,c
  1624  00140E  0E2F               	movlw	low _fifth_digit
  1625  001410  6E44               	movwf	keypad_get_pressed_button@button_pressed^0,c
  1626  001412  0E00               	movlw	high _fifth_digit
  1627  001414  6E45               	movwf	(keypad_get_pressed_button@button_pressed+1)^0,c
  1628  001416  EC0D  F00F         	call	_keypad_get_pressed_button	;wreg free
  1629  00141A  6E1C               	movwf	_fifth_digit_done^0,c
  1630  00141C                     
  1631                           ;application.c: 414:             }while(fifth_digit_done == 0);
  1632  00141C  501C               	movf	_fifth_digit_done^0,w,c
  1633  00141E  B4D8               	btfsc	status,2,c
  1634  001420  EF14  F00A         	goto	u9141
  1635  001424  EF16  F00A         	goto	u9140
  1636  001428                     u9141:
  1637  001428  EF03  F00A         	goto	l9918
  1638  00142C                     u9140:
  1639  00142C                     
  1640                           ;application.c: 415:             set_clock_array[4] = fifth_digit;
  1641  00142C  C02F  F0DB         	movff	_fifth_digit,_set_clock_array+4	;volatile
  1642  001430                     
  1643                           ;application.c: 416:            _delay((unsigned long)((300)*(8000000/4000.0)));
  1644  001430  0E04               	movlw	4
  1645  001432  6E59               	movwf	(??_main+1)^0,c
  1646  001434  0E0C               	movlw	12
  1647  001436  6E58               	movwf	??_main^0,c
  1648  001438  0E34               	movlw	52
  1649  00143A                     u9257:
  1650  00143A  2EE8               	decfsz	wreg,f,c
  1651  00143C  D7FE               	bra	u9257
  1652  00143E  2E58               	decfsz	??_main^0,f,c
  1653  001440  D7FC               	bra	u9257
  1654  001442  2E59               	decfsz	(??_main+1)^0,f,c
  1655  001444  D7FA               	bra	u9257
  1656  001446                     l9924:
  1657                           
  1658                           ;application.c: 419:                 sixth_digit_done = keypad_get_pressed_button(&keypa
      +                          d1,&sixth_digit);
  1659  001446  0EBC               	movlw	low _keypad1
  1660  001448  6E42               	movwf	keypad_get_pressed_button@keypad^0,c
  1661  00144A  0E00               	movlw	high _keypad1
  1662  00144C  6E43               	movwf	(keypad_get_pressed_button@keypad+1)^0,c
  1663  00144E  0E2E               	movlw	low _sixth_digit
  1664  001450  6E44               	movwf	keypad_get_pressed_button@button_pressed^0,c
  1665  001452  0E00               	movlw	high _sixth_digit
  1666  001454  6E45               	movwf	(keypad_get_pressed_button@button_pressed+1)^0,c
  1667  001456  EC0D  F00F         	call	_keypad_get_pressed_button	;wreg free
  1668  00145A  6E1B               	movwf	_sixth_digit_done^0,c
  1669  00145C                     
  1670                           ;application.c: 420:             }while(sixth_digit_done == 0);
  1671  00145C  501B               	movf	_sixth_digit_done^0,w,c
  1672  00145E  B4D8               	btfsc	status,2,c
  1673  001460  EF34  F00A         	goto	u9151
  1674  001464  EF36  F00A         	goto	u9150
  1675  001468                     u9151:
  1676  001468  EF23  F00A         	goto	l9924
  1677  00146C                     u9150:
  1678  00146C                     
  1679                           ;application.c: 421:             set_clock_array[5] = sixth_digit;
  1680  00146C  C02E  F0DC         	movff	_sixth_digit,_set_clock_array+5	;volatile
  1681  001470                     
  1682                           ;application.c: 422:            _delay((unsigned long)((300)*(8000000/4000.0)));
  1683  001470  0E04               	movlw	4
  1684  001472  6E59               	movwf	(??_main+1)^0,c
  1685  001474  0E0C               	movlw	12
  1686  001476  6E58               	movwf	??_main^0,c
  1687  001478  0E34               	movlw	52
  1688  00147A                     u9267:
  1689  00147A  2EE8               	decfsz	wreg,f,c
  1690  00147C  D7FE               	bra	u9267
  1691  00147E  2E58               	decfsz	??_main^0,f,c
  1692  001480  D7FC               	bra	u9267
  1693  001482  2E59               	decfsz	(??_main+1)^0,f,c
  1694  001484  D7FA               	bra	u9267
  1695  001486                     
  1696                           ;application.c: 424:            key_pressed = '.';
  1697  001486  0E2E               	movlw	46
  1698  001488  6E34               	movwf	_key_pressed^0,c	;volatile
  1699  00148A                     
  1700                           ;application.c: 425:            seconds = (second_digit-48)+((first_digit-48)*10);
  1701  00148A  5033               	movf	_first_digit^0,w,c
  1702  00148C  0D0A               	mullw	10
  1703  00148E  50F3               	movf	243,w,c
  1704  001490  2432               	addwf	_second_digit^0,w,c
  1705  001492  0FF0               	addlw	240
  1706  001494  6E5B               	movwf	_seconds^0,c	;volatile
  1707  001496                     
  1708                           ;application.c: 426:            minutes = (fourth_digit-48 )+((third_digit-48) *10);
  1709  001496  5031               	movf	_third_digit^0,w,c
  1710  001498  0D0A               	mullw	10
  1711  00149A  50F3               	movf	243,w,c
  1712  00149C  2430               	addwf	_fourth_digit^0,w,c
  1713  00149E  0FF0               	addlw	240
  1714  0014A0  6E5A               	movwf	_minutes^0,c	;volatile
  1715  0014A2                     
  1716                           ;application.c: 427:            hours = (sixth_digit-48)+((fifth_digit-48)*10);
  1717  0014A2  502F               	movf	_fifth_digit^0,w,c
  1718  0014A4  0D0A               	mullw	10
  1719  0014A6  50F3               	movf	243,w,c
  1720  0014A8  242E               	addwf	_sixth_digit^0,w,c
  1721  0014AA  0FF0               	addlw	240
  1722  0014AC  6E23               	movwf	_hours^0,c	;volatile
  1723  0014AE                     
  1724                           ;application.c: 428:             if(seconds >= 60)
  1725  0014AE  0E3B               	movlw	59
  1726  0014B0  645B               	cpfsgt	_seconds^0,c	;volatile
  1727  0014B2  EF5D  F00A         	goto	u9161
  1728  0014B6  EF5F  F00A         	goto	u9160
  1729  0014BA                     u9161:
  1730  0014BA  EF61  F00A         	goto	l9942
  1731  0014BE                     u9160:
  1732  0014BE                     
  1733                           ;application.c: 429:                 seconds = 0;
  1734  0014BE  0E00               	movlw	0
  1735  0014C0  6E5B               	movwf	_seconds^0,c	;volatile
  1736  0014C2                     l9942:
  1737                           
  1738                           ;application.c: 430:             if(minutes >= 60)
  1739  0014C2  0E3B               	movlw	59
  1740  0014C4  645A               	cpfsgt	_minutes^0,c	;volatile
  1741  0014C6  EF67  F00A         	goto	u9171
  1742  0014CA  EF69  F00A         	goto	u9170
  1743  0014CE                     u9171:
  1744  0014CE  EF6B  F00A         	goto	l9946
  1745  0014D2                     u9170:
  1746  0014D2                     
  1747                           ;application.c: 431:                 minutes = 0;
  1748  0014D2  0E00               	movlw	0
  1749  0014D4  6E5A               	movwf	_minutes^0,c	;volatile
  1750  0014D6                     l9946:
  1751                           
  1752                           ;application.c: 432:            if(hours >= 24)
  1753  0014D6  0E17               	movlw	23
  1754  0014D8  6423               	cpfsgt	_hours^0,c	;volatile
  1755  0014DA  EF71  F00A         	goto	u9181
  1756  0014DE  EF73  F00A         	goto	u9180
  1757  0014E2                     u9181:
  1758  0014E2  EF75  F00A         	goto	l1801
  1759  0014E6                     u9180:
  1760  0014E6                     
  1761                           ;application.c: 433:                hours = 0;
  1762  0014E6  0E00               	movlw	0
  1763  0014E8  6E23               	movwf	_hours^0,c	;volatile
  1764  0014EA                     l1801:
  1765                           
  1766                           ;application.c: 434:            lcd_message = 1;
  1767  0014EA  0E00               	movlw	0
  1768  0014EC  0101               	movlb	1	; () banked
  1769  0014EE  6F0E               	movwf	(main@lcd_message+1)& (0+255),b
  1770  0014F0  0E01               	movlw	1
  1771  0014F2  6F0D               	movwf	main@lcd_message& (0+255),b
  1772  0014F4                     
  1773                           ; BSR set to: 1
  1774                           ;application.c: 435:            hal_timer0_interrupt_enable(&tmr0);
  1775  0014F4  0EA8               	movlw	low _tmr0
  1776  0014F6  6E38               	movwf	hal_timer0_interrupt_enable@timer0^0,c
  1777  0014F8  0E00               	movlw	high _tmr0
  1778  0014FA  6E39               	movwf	(hal_timer0_interrupt_enable@timer0+1)^0,c
  1779  0014FC  EC23  F015         	call	_hal_timer0_interrupt_enable	;wreg free
  1780                           
  1781                           ;application.c: 436:         }
  1782  001500  EF03  F009         	goto	l9868
  1783  001504                     l9952:
  1784                           
  1785                           ; BSR set to: 1
  1786                           ;application.c: 439:             r = seconds%10;
  1787  001504  C05B  F038         	movff	_seconds,___awmod@dividend	;volatile
  1788  001508  6A39               	clrf	(___awmod@dividend+1)^0,c
  1789  00150A  0E00               	movlw	0
  1790  00150C  6E3B               	movwf	(___awmod@divisor+1)^0,c
  1791  00150E  0E0A               	movlw	10
  1792  001510  6E3A               	movwf	___awmod@divisor^0,c
  1793  001512  ECED  F011         	call	___awmod	;wreg free
  1794  001516  5038               	movf	?___awmod^0,w,c
  1795  001518  6E25               	movwf	_r^0,c
  1796                           
  1797                           ;application.c: 440:             l = seconds/10;
  1798  00151A  C05B  F038         	movff	_seconds,___awdiv@dividend	;volatile
  1799  00151E  6A39               	clrf	(___awdiv@dividend+1)^0,c
  1800  001520  0E00               	movlw	0
  1801  001522  6E3B               	movwf	(___awdiv@divisor+1)^0,c
  1802  001524  0E0A               	movlw	10
  1803  001526  6E3A               	movwf	___awdiv@divisor^0,c
  1804  001528  EC7A  F010         	call	___awdiv	;wreg free
  1805  00152C  5038               	movf	?___awdiv^0,w,c
  1806  00152E  6E24               	movwf	_l^0,c
  1807  001530                     
  1808                           ;application.c: 441:             gpio_pin_write_logic(&rd0,HIGH);
  1809  001530  0E6C               	movlw	low _rd0
  1810  001532  6E38               	movwf	gpio_pin_write_logic@pin_config^0,c
  1811  001534  0E00               	movlw	high _rd0
  1812  001536  6E39               	movwf	(gpio_pin_write_logic@pin_config+1)^0,c
  1813  001538  0E01               	movlw	1
  1814  00153A  6E3A               	movwf	gpio_pin_write_logic@logic^0,c
  1815  00153C  ECE5  F00D         	call	_gpio_pin_write_logic	;wreg free
  1816  001540                     
  1817                           ;application.c: 442:             gpio_port_write_logic(PORTC_INDEX,r);
  1818  001540  C025  F038         	movff	_r,gpio_port_write_logic@logic
  1819  001544  0E02               	movlw	2
  1820  001546  ECA4  F014         	call	_gpio_port_write_logic
  1821  00154A                     
  1822                           ;application.c: 443:             _delay((unsigned long)((100)*(8000000/4000000.0)));
  1823  00154A  0E42               	movlw	66
  1824  00154C                     u9277:
  1825  00154C  2EE8               	decfsz	wreg,f,c
  1826  00154E  D7FE               	bra	u9277
  1827  001550  D000               	nop2	
  1828  001552                     
  1829                           ;application.c: 444:             gpio_pin_write_logic(&rd0,LOW);
  1830  001552  0E6C               	movlw	low _rd0
  1831  001554  6E38               	movwf	gpio_pin_write_logic@pin_config^0,c
  1832  001556  0E00               	movlw	high _rd0
  1833  001558  6E39               	movwf	(gpio_pin_write_logic@pin_config+1)^0,c
  1834  00155A  0E00               	movlw	0
  1835  00155C  6E3A               	movwf	gpio_pin_write_logic@logic^0,c
  1836  00155E  ECE5  F00D         	call	_gpio_pin_write_logic	;wreg free
  1837  001562                     
  1838                           ;application.c: 445:             _delay((unsigned long)((100)*(8000000/4000000.0)));
  1839  001562  0E42               	movlw	66
  1840  001564                     u9287:
  1841  001564  2EE8               	decfsz	wreg,f,c
  1842  001566  D7FE               	bra	u9287
  1843  001568  D000               	nop2	
  1844  00156A                     
  1845                           ;application.c: 446:             gpio_pin_write_logic(&rd1,HIGH);
  1846  00156A  0E6B               	movlw	low _rd1
  1847  00156C  6E38               	movwf	gpio_pin_write_logic@pin_config^0,c
  1848  00156E  0E00               	movlw	high _rd1
  1849  001570  6E39               	movwf	(gpio_pin_write_logic@pin_config+1)^0,c
  1850  001572  0E01               	movlw	1
  1851  001574  6E3A               	movwf	gpio_pin_write_logic@logic^0,c
  1852  001576  ECE5  F00D         	call	_gpio_pin_write_logic	;wreg free
  1853  00157A                     
  1854                           ;application.c: 447:             gpio_port_write_logic(PORTC_INDEX,l);
  1855  00157A  C024  F038         	movff	_l,gpio_port_write_logic@logic
  1856  00157E  0E02               	movlw	2
  1857  001580  ECA4  F014         	call	_gpio_port_write_logic
  1858  001584                     
  1859                           ;application.c: 448:             _delay((unsigned long)((100)*(8000000/4000000.0)));
  1860  001584  0E42               	movlw	66
  1861  001586                     u9297:
  1862  001586  2EE8               	decfsz	wreg,f,c
  1863  001588  D7FE               	bra	u9297
  1864  00158A  D000               	nop2	
  1865  00158C                     
  1866                           ;application.c: 449:             gpio_pin_write_logic(&rd1,LOW);
  1867  00158C  0E6B               	movlw	low _rd1
  1868  00158E  6E38               	movwf	gpio_pin_write_logic@pin_config^0,c
  1869  001590  0E00               	movlw	high _rd1
  1870  001592  6E39               	movwf	(gpio_pin_write_logic@pin_config+1)^0,c
  1871  001594  0E00               	movlw	0
  1872  001596  6E3A               	movwf	gpio_pin_write_logic@logic^0,c
  1873  001598  ECE5  F00D         	call	_gpio_pin_write_logic	;wreg free
  1874  00159C                     
  1875                           ;application.c: 450:             _delay((unsigned long)((100)*(8000000/4000000.0)));
  1876  00159C  0E42               	movlw	66
  1877  00159E                     u9307:
  1878  00159E  2EE8               	decfsz	wreg,f,c
  1879  0015A0  D7FE               	bra	u9307
  1880  0015A2  D000               	nop2	
  1881                           
  1882                           ;application.c: 453:             r = minutes%10;
  1883  0015A4  C05A  F038         	movff	_minutes,___awmod@dividend	;volatile
  1884  0015A8  6A39               	clrf	(___awmod@dividend+1)^0,c
  1885  0015AA  0E00               	movlw	0
  1886  0015AC  6E3B               	movwf	(___awmod@divisor+1)^0,c
  1887  0015AE  0E0A               	movlw	10
  1888  0015B0  6E3A               	movwf	___awmod@divisor^0,c
  1889  0015B2  ECED  F011         	call	___awmod	;wreg free
  1890  0015B6  5038               	movf	?___awmod^0,w,c
  1891  0015B8  6E25               	movwf	_r^0,c
  1892                           
  1893                           ;application.c: 454:             l = minutes/10;
  1894  0015BA  C05A  F038         	movff	_minutes,___awdiv@dividend	;volatile
  1895  0015BE  6A39               	clrf	(___awdiv@dividend+1)^0,c
  1896  0015C0  0E00               	movlw	0
  1897  0015C2  6E3B               	movwf	(___awdiv@divisor+1)^0,c
  1898  0015C4  0E0A               	movlw	10
  1899  0015C6  6E3A               	movwf	___awdiv@divisor^0,c
  1900  0015C8  EC7A  F010         	call	___awdiv	;wreg free
  1901  0015CC  5038               	movf	?___awdiv^0,w,c
  1902  0015CE  6E24               	movwf	_l^0,c
  1903  0015D0                     
  1904                           ;application.c: 455:             gpio_pin_write_logic(&rd2,HIGH);
  1905  0015D0  0E6A               	movlw	low _rd2
  1906  0015D2  6E38               	movwf	gpio_pin_write_logic@pin_config^0,c
  1907  0015D4  0E00               	movlw	high _rd2
  1908  0015D6  6E39               	movwf	(gpio_pin_write_logic@pin_config+1)^0,c
  1909  0015D8  0E01               	movlw	1
  1910  0015DA  6E3A               	movwf	gpio_pin_write_logic@logic^0,c
  1911  0015DC  ECE5  F00D         	call	_gpio_pin_write_logic	;wreg free
  1912  0015E0                     
  1913                           ;application.c: 456:             gpio_port_write_logic(PORTC_INDEX,r);
  1914  0015E0  C025  F038         	movff	_r,gpio_port_write_logic@logic
  1915  0015E4  0E02               	movlw	2
  1916  0015E6  ECA4  F014         	call	_gpio_port_write_logic
  1917  0015EA                     
  1918                           ;application.c: 457:             _delay((unsigned long)((100)*(8000000/4000000.0)));
  1919  0015EA  0E42               	movlw	66
  1920  0015EC                     u9317:
  1921  0015EC  2EE8               	decfsz	wreg,f,c
  1922  0015EE  D7FE               	bra	u9317
  1923  0015F0  D000               	nop2	
  1924  0015F2                     
  1925                           ;application.c: 458:             gpio_pin_write_logic(&rd2,LOW);
  1926  0015F2  0E6A               	movlw	low _rd2
  1927  0015F4  6E38               	movwf	gpio_pin_write_logic@pin_config^0,c
  1928  0015F6  0E00               	movlw	high _rd2
  1929  0015F8  6E39               	movwf	(gpio_pin_write_logic@pin_config+1)^0,c
  1930  0015FA  0E00               	movlw	0
  1931  0015FC  6E3A               	movwf	gpio_pin_write_logic@logic^0,c
  1932  0015FE  ECE5  F00D         	call	_gpio_pin_write_logic	;wreg free
  1933  001602                     
  1934                           ;application.c: 459:             _delay((unsigned long)((100)*(8000000/4000000.0)));
  1935  001602  0E42               	movlw	66
  1936  001604                     u9327:
  1937  001604  2EE8               	decfsz	wreg,f,c
  1938  001606  D7FE               	bra	u9327
  1939  001608  D000               	nop2	
  1940  00160A                     
  1941                           ;application.c: 460:             gpio_pin_write_logic(&rd3,HIGH);
  1942  00160A  0E69               	movlw	low _rd3
  1943  00160C  6E38               	movwf	gpio_pin_write_logic@pin_config^0,c
  1944  00160E  0E00               	movlw	high _rd3
  1945  001610  6E39               	movwf	(gpio_pin_write_logic@pin_config+1)^0,c
  1946  001612  0E01               	movlw	1
  1947  001614  6E3A               	movwf	gpio_pin_write_logic@logic^0,c
  1948  001616  ECE5  F00D         	call	_gpio_pin_write_logic	;wreg free
  1949  00161A                     
  1950                           ;application.c: 461:             gpio_port_write_logic(PORTC_INDEX,l);
  1951  00161A  C024  F038         	movff	_l,gpio_port_write_logic@logic
  1952  00161E  0E02               	movlw	2
  1953  001620  ECA4  F014         	call	_gpio_port_write_logic
  1954  001624                     
  1955                           ;application.c: 462:             _delay((unsigned long)((100)*(8000000/4000000.0)));
  1956  001624  0E42               	movlw	66
  1957  001626                     u9337:
  1958  001626  2EE8               	decfsz	wreg,f,c
  1959  001628  D7FE               	bra	u9337
  1960  00162A  D000               	nop2	
  1961  00162C                     
  1962                           ;application.c: 463:             gpio_pin_write_logic(&rd3,LOW);
  1963  00162C  0E69               	movlw	low _rd3
  1964  00162E  6E38               	movwf	gpio_pin_write_logic@pin_config^0,c
  1965  001630  0E00               	movlw	high _rd3
  1966  001632  6E39               	movwf	(gpio_pin_write_logic@pin_config+1)^0,c
  1967  001634  0E00               	movlw	0
  1968  001636  6E3A               	movwf	gpio_pin_write_logic@logic^0,c
  1969  001638  ECE5  F00D         	call	_gpio_pin_write_logic	;wreg free
  1970  00163C                     
  1971                           ;application.c: 464:             _delay((unsigned long)((100)*(8000000/4000000.0)));
  1972  00163C  0E42               	movlw	66
  1973  00163E                     u9347:
  1974  00163E  2EE8               	decfsz	wreg,f,c
  1975  001640  D7FE               	bra	u9347
  1976  001642  D000               	nop2	
  1977                           
  1978                           ;application.c: 467:             r = hours%10;
  1979  001644  C023  F038         	movff	_hours,___awmod@dividend	;volatile
  1980  001648  6A39               	clrf	(___awmod@dividend+1)^0,c
  1981  00164A  0E00               	movlw	0
  1982  00164C  6E3B               	movwf	(___awmod@divisor+1)^0,c
  1983  00164E  0E0A               	movlw	10
  1984  001650  6E3A               	movwf	___awmod@divisor^0,c
  1985  001652  ECED  F011         	call	___awmod	;wreg free
  1986  001656  5038               	movf	?___awmod^0,w,c
  1987  001658  6E25               	movwf	_r^0,c
  1988                           
  1989                           ;application.c: 468:             l = hours/10;
  1990  00165A  C023  F038         	movff	_hours,___awdiv@dividend	;volatile
  1991  00165E  6A39               	clrf	(___awdiv@dividend+1)^0,c
  1992  001660  0E00               	movlw	0
  1993  001662  6E3B               	movwf	(___awdiv@divisor+1)^0,c
  1994  001664  0E0A               	movlw	10
  1995  001666  6E3A               	movwf	___awdiv@divisor^0,c
  1996  001668  EC7A  F010         	call	___awdiv	;wreg free
  1997  00166C  5038               	movf	?___awdiv^0,w,c
  1998  00166E  6E24               	movwf	_l^0,c
  1999  001670                     
  2000                           ;application.c: 469:             gpio_pin_write_logic(&rd4,HIGH);
  2001  001670  0E68               	movlw	low _rd4
  2002  001672  6E38               	movwf	gpio_pin_write_logic@pin_config^0,c
  2003  001674  0E00               	movlw	high _rd4
  2004  001676  6E39               	movwf	(gpio_pin_write_logic@pin_config+1)^0,c
  2005  001678  0E01               	movlw	1
  2006  00167A  6E3A               	movwf	gpio_pin_write_logic@logic^0,c
  2007  00167C  ECE5  F00D         	call	_gpio_pin_write_logic	;wreg free
  2008  001680                     
  2009                           ;application.c: 470:             gpio_port_write_logic(PORTC_INDEX,r);
  2010  001680  C025  F038         	movff	_r,gpio_port_write_logic@logic
  2011  001684  0E02               	movlw	2
  2012  001686  ECA4  F014         	call	_gpio_port_write_logic
  2013  00168A                     
  2014                           ;application.c: 471:             _delay((unsigned long)((100)*(8000000/4000000.0)));
  2015  00168A  0E42               	movlw	66
  2016  00168C                     u9357:
  2017  00168C  2EE8               	decfsz	wreg,f,c
  2018  00168E  D7FE               	bra	u9357
  2019  001690  D000               	nop2	
  2020  001692                     
  2021                           ;application.c: 472:             gpio_pin_write_logic(&rd4,LOW);
  2022  001692  0E68               	movlw	low _rd4
  2023  001694  6E38               	movwf	gpio_pin_write_logic@pin_config^0,c
  2024  001696  0E00               	movlw	high _rd4
  2025  001698  6E39               	movwf	(gpio_pin_write_logic@pin_config+1)^0,c
  2026  00169A  0E00               	movlw	0
  2027  00169C  6E3A               	movwf	gpio_pin_write_logic@logic^0,c
  2028  00169E  ECE5  F00D         	call	_gpio_pin_write_logic	;wreg free
  2029  0016A2                     
  2030                           ;application.c: 473:             _delay((unsigned long)((100)*(8000000/4000000.0)));
  2031  0016A2  0E42               	movlw	66
  2032  0016A4                     u9367:
  2033  0016A4  2EE8               	decfsz	wreg,f,c
  2034  0016A6  D7FE               	bra	u9367
  2035  0016A8  D000               	nop2	
  2036  0016AA                     
  2037                           ;application.c: 474:             gpio_pin_write_logic(&rd5,HIGH);
  2038  0016AA  0E67               	movlw	low _rd5
  2039  0016AC  6E38               	movwf	gpio_pin_write_logic@pin_config^0,c
  2040  0016AE  0E00               	movlw	high _rd5
  2041  0016B0  6E39               	movwf	(gpio_pin_write_logic@pin_config+1)^0,c
  2042  0016B2  0E01               	movlw	1
  2043  0016B4  6E3A               	movwf	gpio_pin_write_logic@logic^0,c
  2044  0016B6  ECE5  F00D         	call	_gpio_pin_write_logic	;wreg free
  2045  0016BA                     
  2046                           ;application.c: 475:             gpio_port_write_logic(PORTC_INDEX,l);
  2047  0016BA  C024  F038         	movff	_l,gpio_port_write_logic@logic
  2048  0016BE  0E02               	movlw	2
  2049  0016C0  ECA4  F014         	call	_gpio_port_write_logic
  2050  0016C4                     
  2051                           ;application.c: 476:             _delay((unsigned long)((100)*(8000000/4000000.0)));
  2052  0016C4  0E42               	movlw	66
  2053  0016C6                     u9377:
  2054  0016C6  2EE8               	decfsz	wreg,f,c
  2055  0016C8  D7FE               	bra	u9377
  2056  0016CA  D000               	nop2	
  2057  0016CC                     
  2058                           ;application.c: 477:             gpio_pin_write_logic(&rd5,LOW);
  2059  0016CC  0E67               	movlw	low _rd5
  2060  0016CE  6E38               	movwf	gpio_pin_write_logic@pin_config^0,c
  2061  0016D0  0E00               	movlw	high _rd5
  2062  0016D2  6E39               	movwf	(gpio_pin_write_logic@pin_config+1)^0,c
  2063  0016D4  0E00               	movlw	0
  2064  0016D6  6E3A               	movwf	gpio_pin_write_logic@logic^0,c
  2065  0016D8  ECE5  F00D         	call	_gpio_pin_write_logic	;wreg free
  2066  0016DC                     
  2067                           ;application.c: 478:             _delay((unsigned long)((100)*(8000000/4000000.0)));
  2068  0016DC  0E42               	movlw	66
  2069  0016DE                     u9387:
  2070  0016DE  2EE8               	decfsz	wreg,f,c
  2071  0016E0  D7FE               	bra	u9387
  2072  0016E2  D000               	nop2	
  2073  0016E4  EF03  F009         	goto	l9868
  2074  0016E8  EF07  F000         	goto	start
  2075  0016EC                     __end_of_main:
  2076                           	callstack 0
  2077                           
  2078 ;; *************** function _lcd_8bit_send_string_pos *****************
  2079 ;; Defined at:
  2080 ;;		line 348 in file "ECU_Layer/Chr_LCD/ecu_chr_lcd.c"
  2081 ;; Parameters:    Size  Location     Type
  2082 ;;  lcd             2   29[COMRAM] PTR const struct .
  2083 ;;		 -> lcd_8(10), 
  2084 ;;  row             1   31[COMRAM] unsigned char 
  2085 ;;  column          1   32[COMRAM] unsigned char 
  2086 ;;  str             2   33[COMRAM] PTR unsigned char 
  2087 ;;		 -> STR_8(17), STR_7(26), STR_6(21), STR_5(2), 
  2088 ;;		 -> STR_4(13), 
  2089 ;; Auto vars:     Size  Location     Type
  2090 ;;  Status          1    0        unsigned char 
  2091 ;; Return value:  Size  Location     Type
  2092 ;;                  1    wreg      unsigned char 
  2093 ;; Registers used:
  2094 ;;		wreg, fsr2l, fsr2h, status,2, status,0, tblptrl, tblptrh, tblptru, prodl, prodh, cstack
  2095 ;; Tracked objects:
  2096 ;;		On entry : 0/0
  2097 ;;		On exit  : 0/0
  2098 ;;		Unchanged: 0/0
  2099 ;; Data sizes:     COMRAM   BANK0   BANK1   BANK2   BANK3   BANK4   BANK5   BANK6   BANK7   BANK8   BANK9  BANK10  BANK1
      +1  BANK12  BANK13  BANK14  BANK15
  2100 ;;      Params:         6       0       0       0       0       0       0       0       0       0       0       0       
      +0       0       0       0       0
  2101 ;;      Locals:         0       0       0       0       0       0       0       0       0       0       0       0       
      +0       0       0       0       0
  2102 ;;      Temps:          0       0       0       0       0       0       0       0       0       0       0       0       
      +0       0       0       0       0
  2103 ;;      Totals:         6       0       0       0       0       0       0       0       0       0       0       0       
      +0       0       0       0       0
  2104 ;;Total ram usage:        6 bytes
  2105 ;; Hardware stack levels used: 1
  2106 ;; Hardware stack levels required when called: 6
  2107 ;; This function calls:
  2108 ;;		_lcd_8bit_send_string
  2109 ;;		_lcd_8bit_set_cursor
  2110 ;; This function is called by:
  2111 ;;		_main
  2112 ;; This function uses a non-reentrant model
  2113 ;;
  2114                           
  2115                           	psect	text1
  2116  0027F0                     __ptext1:
  2117                           	callstack 0
  2118  0027F0                     _lcd_8bit_send_string_pos:
  2119                           	callstack 24
  2120  0027F0                     
  2121                           ;ECU_Layer/Chr_LCD/ecu_chr_lcd.c: 350:     if(lcd != ((void*)0) && *str!= ((void*)0)){
  2122  0027F0  5052               	movf	lcd_8bit_send_string_pos@lcd^0,w,c
  2123  0027F2  1053               	iorwf	(lcd_8bit_send_string_pos@lcd+1)^0,w,c
  2124  0027F4  B4D8               	btfsc	status,2,c
  2125  0027F6  EFFF  F013         	goto	u8421
  2126  0027FA  EF01  F014         	goto	u8420
  2127  0027FE                     u8421:
  2128  0027FE  EF26  F014         	goto	l9258
  2129  002802                     u8420:
  2130  002802  C056  FFF6         	movff	lcd_8bit_send_string_pos@str,tblptrl
  2131  002806  C057  FFF7         	movff	lcd_8bit_send_string_pos@str+1,tblptrh
  2132  00280A                     	if	1	;Program memory is < 0x10000, tblptru is always zero
  2133  00280A  6AF8               	clrf	tblptru,c
  2134  00280C                     	endif
  2135  00280C                     	if	0	;tblptru may be non-zero
  2136  00280C                     	endif
  2137  00280C  0008               	tblrd		*
  2138  00280E  50F5               	movf	tablat,w,c
  2139  002810  0900               	iorlw	0
  2140  002812  B4D8               	btfsc	status,2,c
  2141  002814  EF0E  F014         	goto	u8431
  2142  002818  EF10  F014         	goto	u8430
  2143  00281C                     u8431:
  2144  00281C  EF26  F014         	goto	l9258
  2145  002820                     u8430:
  2146  002820  C052  F04B         	movff	lcd_8bit_send_string_pos@lcd,lcd_8bit_set_cursor@lcd
  2147  002824  C053  F04C         	movff	lcd_8bit_send_string_pos@lcd+1,lcd_8bit_set_cursor@lcd+1
  2148  002828  C054  F04D         	movff	lcd_8bit_send_string_pos@row,lcd_8bit_set_cursor@row
  2149  00282C  C055  F04E         	movff	lcd_8bit_send_string_pos@column,lcd_8bit_set_cursor@column
  2150  002830  ECDC  F010         	call	_lcd_8bit_set_cursor	;wreg free
  2151  002834  C052  F04B         	movff	lcd_8bit_send_string_pos@lcd,lcd_8bit_send_string@lcd
  2152  002838  C053  F04C         	movff	lcd_8bit_send_string_pos@lcd+1,lcd_8bit_send_string@lcd+1
  2153  00283C  C056  F04D         	movff	lcd_8bit_send_string_pos@str,lcd_8bit_send_string@str
  2154  002840  C057  F04E         	movff	lcd_8bit_send_string_pos@str+1,lcd_8bit_send_string@str+1
  2155  002844  ECEA  F012         	call	_lcd_8bit_send_string	;wreg free
  2156                           
  2157                           ;ECU_Layer/Chr_LCD/ecu_chr_lcd.c: 353:     }
  2158  002848  EF26  F014         	goto	l156
  2159  00284C                     l9258:
  2160  00284C                     l156:
  2161  00284C  0012               	return		;funcret
  2162  00284E                     __end_of_lcd_8bit_send_string_pos:
  2163                           	callstack 0
  2164                           
  2165 ;; *************** function _lcd_8bit_set_cursor *****************
  2166 ;; Defined at:
  2167 ;;		line 378 in file "ECU_Layer/Chr_LCD/ecu_chr_lcd.c"
  2168 ;; Parameters:    Size  Location     Type
  2169 ;;  lcd             2   22[COMRAM] PTR const struct .
  2170 ;;		 -> lcd_8(10), 
  2171 ;;  row             1   24[COMRAM] unsigned char 
  2172 ;;  column          1   25[COMRAM] unsigned char 
  2173 ;; Auto vars:     Size  Location     Type
  2174 ;;  Status          1   28[COMRAM] unsigned char 
  2175 ;; Return value:  Size  Location     Type
  2176 ;;                  1    wreg      unsigned char 
  2177 ;; Registers used:
  2178 ;;		wreg, fsr2l, fsr2h, status,2, status,0, prodl, prodh, cstack
  2179 ;; Tracked objects:
  2180 ;;		On entry : 0/0
  2181 ;;		On exit  : 0/0
  2182 ;;		Unchanged: 0/0
  2183 ;; Data sizes:     COMRAM   BANK0   BANK1   BANK2   BANK3   BANK4   BANK5   BANK6   BANK7   BANK8   BANK9  BANK10  BANK1
      +1  BANK12  BANK13  BANK14  BANK15
  2184 ;;      Params:         4       0       0       0       0       0       0       0       0       0       0       0       
      +0       0       0       0       0
  2185 ;;      Locals:         1       0       0       0       0       0       0       0       0       0       0       0       
      +0       0       0       0       0
  2186 ;;      Temps:          2       0       0       0       0       0       0       0       0       0       0       0       
      +0       0       0       0       0
  2187 ;;      Totals:         7       0       0       0       0       0       0       0       0       0       0       0       
      +0       0       0       0       0
  2188 ;;Total ram usage:        7 bytes
  2189 ;; Hardware stack levels used: 1
  2190 ;; Hardware stack levels required when called: 5
  2191 ;; This function calls:
  2192 ;;		_lcd_8bit_send_command
  2193 ;; This function is called by:
  2194 ;;		_lcd_8bit_send_string_pos
  2195 ;;		_lcd_8bit_send_char_data_pos
  2196 ;; This function uses a non-reentrant model
  2197 ;;
  2198                           
  2199                           	psect	text2
  2200  0021B8                     __ptext2:
  2201                           	callstack 0
  2202  0021B8                     _lcd_8bit_set_cursor:
  2203                           	callstack 24
  2204  0021B8                     
  2205                           ;ECU_Layer/Chr_LCD/ecu_chr_lcd.c: 381:     if(lcd != ((void*)0)){
  2206  0021B8  504B               	movf	lcd_8bit_set_cursor@lcd^0,w,c
  2207  0021BA  104C               	iorwf	(lcd_8bit_set_cursor@lcd+1)^0,w,c
  2208  0021BC  B4D8               	btfsc	status,2,c
  2209  0021BE  EFE3  F010         	goto	u8161
  2210  0021C2  EFE5  F010         	goto	u8160
  2211  0021C6                     u8161:
  2212  0021C6  EF18  F011         	goto	l8984
  2213  0021CA                     u8160:
  2214  0021CA                     
  2215                           ;ECU_Layer/Chr_LCD/ecu_chr_lcd.c: 382:         column--;
  2216  0021CA  064E               	decf	lcd_8bit_set_cursor@column^0,f,c
  2217                           
  2218                           ;ECU_Layer/Chr_LCD/ecu_chr_lcd.c: 383:         switch(row){
  2219  0021CC  EF1C  F011         	goto	l8988
  2220  0021D0                     l8976:
  2221                           
  2222                           ;ECU_Layer/Chr_LCD/ecu_chr_lcd.c: 385:                 Status = lcd_8bit_send_command(lc
      +                          d,0x80+column);
  2223  0021D0  C04B  F042         	movff	lcd_8bit_set_cursor@lcd,lcd_8bit_send_command@lcd
  2224  0021D4  C04C  F043         	movff	lcd_8bit_set_cursor@lcd+1,lcd_8bit_send_command@lcd+1
  2225  0021D8  504E               	movf	lcd_8bit_set_cursor@column^0,w,c
  2226  0021DA  0F80               	addlw	128
  2227  0021DC  6E44               	movwf	lcd_8bit_send_command@command^0,c
  2228  0021DE  EC94  F011         	call	_lcd_8bit_send_command	;wreg free
  2229  0021E2  6E51               	movwf	lcd_8bit_set_cursor@Status^0,c
  2230                           
  2231                           ;ECU_Layer/Chr_LCD/ecu_chr_lcd.c: 386:                 break;
  2232  0021E4  EF39  F011         	goto	l172
  2233  0021E8                     l8978:
  2234                           
  2235                           ;ECU_Layer/Chr_LCD/ecu_chr_lcd.c: 391:                 Status = lcd_8bit_send_command(lc
      +                          d,0xC0+column);
  2236  0021E8  C04B  F042         	movff	lcd_8bit_set_cursor@lcd,lcd_8bit_send_command@lcd
  2237  0021EC  C04C  F043         	movff	lcd_8bit_set_cursor@lcd+1,lcd_8bit_send_command@lcd+1
  2238  0021F0  504E               	movf	lcd_8bit_set_cursor@column^0,w,c
  2239  0021F2  0FC0               	addlw	192
  2240  0021F4  6E44               	movwf	lcd_8bit_send_command@command^0,c
  2241  0021F6  EC94  F011         	call	_lcd_8bit_send_command	;wreg free
  2242  0021FA  6E51               	movwf	lcd_8bit_set_cursor@Status^0,c
  2243                           
  2244                           ;ECU_Layer/Chr_LCD/ecu_chr_lcd.c: 392:                 break;
  2245  0021FC  EF39  F011         	goto	l172
  2246  002200                     l8980:
  2247                           
  2248                           ;ECU_Layer/Chr_LCD/ecu_chr_lcd.c: 396:                 Status = lcd_8bit_send_command(lc
      +                          d,0x94+column);
  2249  002200  C04B  F042         	movff	lcd_8bit_set_cursor@lcd,lcd_8bit_send_command@lcd
  2250  002204  C04C  F043         	movff	lcd_8bit_set_cursor@lcd+1,lcd_8bit_send_command@lcd+1
  2251  002208  504E               	movf	lcd_8bit_set_cursor@column^0,w,c
  2252  00220A  0F94               	addlw	148
  2253  00220C  6E44               	movwf	lcd_8bit_send_command@command^0,c
  2254  00220E  EC94  F011         	call	_lcd_8bit_send_command	;wreg free
  2255  002212  6E51               	movwf	lcd_8bit_set_cursor@Status^0,c
  2256                           
  2257                           ;ECU_Layer/Chr_LCD/ecu_chr_lcd.c: 397:                 break;
  2258  002214  EF39  F011         	goto	l172
  2259  002218                     l8982:
  2260                           
  2261                           ;ECU_Layer/Chr_LCD/ecu_chr_lcd.c: 402:                 Status = lcd_8bit_send_command(lc
      +                          d,0xD4+column);
  2262  002218  C04B  F042         	movff	lcd_8bit_set_cursor@lcd,lcd_8bit_send_command@lcd
  2263  00221C  C04C  F043         	movff	lcd_8bit_set_cursor@lcd+1,lcd_8bit_send_command@lcd+1
  2264  002220  504E               	movf	lcd_8bit_set_cursor@column^0,w,c
  2265  002222  0FD4               	addlw	212
  2266  002224  6E44               	movwf	lcd_8bit_send_command@command^0,c
  2267  002226  EC94  F011         	call	_lcd_8bit_send_command	;wreg free
  2268  00222A  6E51               	movwf	lcd_8bit_set_cursor@Status^0,c
  2269                           
  2270                           ;ECU_Layer/Chr_LCD/ecu_chr_lcd.c: 403:                 break;
  2271  00222C  EF39  F011         	goto	l172
  2272  002230                     l8984:
  2273                           
  2274                           ;ECU_Layer/Chr_LCD/ecu_chr_lcd.c: 406:                 Status = (STD_ReturnType)0x00;
  2275  002230  0E00               	movlw	0
  2276  002232  6E51               	movwf	lcd_8bit_set_cursor@Status^0,c
  2277                           
  2278                           ;ECU_Layer/Chr_LCD/ecu_chr_lcd.c: 407:                 break;
  2279  002234  EF39  F011         	goto	l172
  2280  002238                     l8988:
  2281  002238  504D               	movf	lcd_8bit_set_cursor@row^0,w,c
  2282  00223A  6E4F               	movwf	??_lcd_8bit_set_cursor^0,c
  2283  00223C  6A50               	clrf	(??_lcd_8bit_set_cursor+1)^0,c
  2284                           
  2285                           ; Switch on 2 bytes has been partitioned into a top level switch of size 1, and 1 sub-sw
      +                          itches
  2286                           ; Switch size 1, requested type "simple"
  2287                           ; Number of cases is 1, Range of values is 0 to 0
  2288                           ; switch strategies available:
  2289                           ; Name         Instructions Cycles
  2290                           ; simple_byte            4     3 (average)
  2291                           ;	Chosen strategy is simple_byte
  2292  00223E  5050               	movf	(??_lcd_8bit_set_cursor+1)^0,w,c
  2293  002240  0A00               	xorlw	0	; case 0
  2294  002242  B4D8               	btfsc	status,2,c
  2295  002244  EF26  F011         	goto	l10094
  2296  002248  EF18  F011         	goto	l8984
  2297  00224C                     l10094:
  2298                           
  2299                           ; Switch size 1, requested type "simple"
  2300                           ; Number of cases is 4, Range of values is 1 to 4
  2301                           ; switch strategies available:
  2302                           ; Name         Instructions Cycles
  2303                           ; simple_byte           13     7 (average)
  2304                           ;	Chosen strategy is simple_byte
  2305  00224C  504F               	movf	??_lcd_8bit_set_cursor^0,w,c
  2306  00224E  0A01               	xorlw	1	; case 1
  2307  002250  B4D8               	btfsc	status,2,c
  2308  002252  EFE8  F010         	goto	l8976
  2309  002256  0A03               	xorlw	3	; case 2
  2310  002258  B4D8               	btfsc	status,2,c
  2311  00225A  EFF4  F010         	goto	l8978
  2312  00225E  0A01               	xorlw	1	; case 3
  2313  002260  B4D8               	btfsc	status,2,c
  2314  002262  EF00  F011         	goto	l8980
  2315  002266  0A07               	xorlw	7	; case 4
  2316  002268  B4D8               	btfsc	status,2,c
  2317  00226A  EF0C  F011         	goto	l8982
  2318  00226E  EF18  F011         	goto	l8984
  2319  002272                     l172:
  2320                           
  2321                           ;ECU_Layer/Chr_LCD/ecu_chr_lcd.c: 417:     return Status;
  2322  002272  5051               	movf	lcd_8bit_set_cursor@Status^0,w,c
  2323  002274  0012               	return		;funcret
  2324  002276                     __end_of_lcd_8bit_set_cursor:
  2325                           	callstack 0
  2326                           
  2327 ;; *************** function _lcd_8bit_send_string *****************
  2328 ;; Defined at:
  2329 ;;		line 332 in file "ECU_Layer/Chr_LCD/ecu_chr_lcd.c"
  2330 ;; Parameters:    Size  Location     Type
  2331 ;;  lcd             2   22[COMRAM] PTR const struct .
  2332 ;;		 -> lcd_8(10), 
  2333 ;;  str             2   24[COMRAM] PTR unsigned char 
  2334 ;;		 -> STR_8(17), STR_7(26), STR_6(21), STR_5(2), 
  2335 ;;		 -> STR_4(13), 
  2336 ;; Auto vars:     Size  Location     Type
  2337 ;;  Status          1   26[COMRAM] unsigned char 
  2338 ;; Return value:  Size  Location     Type
  2339 ;;                  1    wreg      unsigned char 
  2340 ;; Registers used:
  2341 ;;		wreg, fsr2l, fsr2h, status,2, status,0, tblptrl, tblptrh, tblptru, prodl, prodh, cstack
  2342 ;; Tracked objects:
  2343 ;;		On entry : 0/0
  2344 ;;		On exit  : 0/0
  2345 ;;		Unchanged: 0/0
  2346 ;; Data sizes:     COMRAM   BANK0   BANK1   BANK2   BANK3   BANK4   BANK5   BANK6   BANK7   BANK8   BANK9  BANK10  BANK1
      +1  BANK12  BANK13  BANK14  BANK15
  2347 ;;      Params:         4       0       0       0       0       0       0       0       0       0       0       0       
      +0       0       0       0       0
  2348 ;;      Locals:         1       0       0       0       0       0       0       0       0       0       0       0       
      +0       0       0       0       0
  2349 ;;      Temps:          0       0       0       0       0       0       0       0       0       0       0       0       
      +0       0       0       0       0
  2350 ;;      Totals:         5       0       0       0       0       0       0       0       0       0       0       0       
      +0       0       0       0       0
  2351 ;;Total ram usage:        5 bytes
  2352 ;; Hardware stack levels used: 1
  2353 ;; Hardware stack levels required when called: 5
  2354 ;; This function calls:
  2355 ;;		_lcd_8bit_send_char_data
  2356 ;; This function is called by:
  2357 ;;		_lcd_8bit_send_string_pos
  2358 ;; This function uses a non-reentrant model
  2359 ;;
  2360                           
  2361                           	psect	text3
  2362  0025D4                     __ptext3:
  2363                           	callstack 0
  2364  0025D4                     _lcd_8bit_send_string:
  2365                           	callstack 24
  2366  0025D4                     
  2367                           ;ECU_Layer/Chr_LCD/ecu_chr_lcd.c: 333:     STD_ReturnType Status = (STD_ReturnType)0x01;
  2368  0025D4  0E01               	movlw	1
  2369  0025D6  6E4F               	movwf	lcd_8bit_send_string@Status^0,c
  2370  0025D8                     
  2371                           ;ECU_Layer/Chr_LCD/ecu_chr_lcd.c: 334:     if(lcd != ((void*)0) && str != ((void*)0)){
  2372  0025D8  504B               	movf	lcd_8bit_send_string@lcd^0,w,c
  2373  0025DA  104C               	iorwf	(lcd_8bit_send_string@lcd+1)^0,w,c
  2374  0025DC  B4D8               	btfsc	status,2,c
  2375  0025DE  EFF3  F012         	goto	u8171
  2376  0025E2  EFF5  F012         	goto	u8170
  2377  0025E6                     u8171:
  2378  0025E6  EF22  F013         	goto	l9012
  2379  0025EA                     u8170:
  2380  0025EA  504D               	movf	lcd_8bit_send_string@str^0,w,c
  2381  0025EC  104E               	iorwf	(lcd_8bit_send_string@str+1)^0,w,c
  2382  0025EE  B4D8               	btfsc	status,2,c
  2383  0025F0  EFFC  F012         	goto	u8181
  2384  0025F4  EFFE  F012         	goto	u8180
  2385  0025F8                     u8181:
  2386  0025F8  EF22  F013         	goto	l9012
  2387  0025FC                     u8180:
  2388  0025FC  EF11  F013         	goto	l9010
  2389  002600                     l9006:
  2390                           
  2391                           ;ECU_Layer/Chr_LCD/ecu_chr_lcd.c: 336:             Status = lcd_8bit_send_char_data(lcd,
      +                          *str++);
  2392  002600  C04B  F042         	movff	lcd_8bit_send_string@lcd,lcd_8bit_send_char_data@lcd
  2393  002604  C04C  F043         	movff	lcd_8bit_send_string@lcd+1,lcd_8bit_send_char_data@lcd+1
  2394  002608  C04D  FFF6         	movff	lcd_8bit_send_string@str,tblptrl
  2395  00260C  C04E  FFF7         	movff	lcd_8bit_send_string@str+1,tblptrh
  2396  002610                     	if	1	;Program memory is < 0x10000, tblptru is always zero
  2397  002610  6AF8               	clrf	tblptru,c
  2398  002612                     	endif
  2399  002612                     	if	0	;tblptru may be non-zero
  2400  002612                     	endif
  2401  002612  0008               	tblrd		*
  2402  002614  CFF5 F044          	movff	tablat,lcd_8bit_send_char_data@data
  2403  002618  EC3B  F011         	call	_lcd_8bit_send_char_data	;wreg free
  2404  00261C  6E4F               	movwf	lcd_8bit_send_string@Status^0,c
  2405  00261E  4A4D               	infsnz	lcd_8bit_send_string@str^0,f,c
  2406  002620  2A4E               	incf	(lcd_8bit_send_string@str+1)^0,f,c
  2407  002622                     l9010:
  2408                           
  2409                           ;ECU_Layer/Chr_LCD/ecu_chr_lcd.c: 335:         while(*str != '\0'){
  2410  002622  C04D  FFF6         	movff	lcd_8bit_send_string@str,tblptrl
  2411  002626  C04E  FFF7         	movff	lcd_8bit_send_string@str+1,tblptrh
  2412  00262A                     	if	1	;Program memory is < 0x10000, tblptru is always zero
  2413  00262A  6AF8               	clrf	tblptru,c
  2414  00262C                     	endif
  2415  00262C                     	if	0	;tblptru may be non-zero
  2416  00262C                     	endif
  2417  00262C  0008               	tblrd		*
  2418  00262E  50F5               	movf	tablat,w,c
  2419  002630  0900               	iorlw	0
  2420  002632  A4D8               	btfss	status,2,c
  2421  002634  EF1E  F013         	goto	u8191
  2422  002638  EF20  F013         	goto	u8190
  2423  00263C                     u8191:
  2424  00263C  EF00  F013         	goto	l9006
  2425  002640                     u8190:
  2426  002640  EF24  F013         	goto	l150
  2427  002644                     l9012:
  2428                           
  2429                           ;ECU_Layer/Chr_LCD/ecu_chr_lcd.c: 340:         Status = (STD_ReturnType)0x00;
  2430  002644  0E00               	movlw	0
  2431  002646  6E4F               	movwf	lcd_8bit_send_string@Status^0,c
  2432  002648                     l150:
  2433                           
  2434                           ;ECU_Layer/Chr_LCD/ecu_chr_lcd.c: 344:     return Status;
  2435  002648  504F               	movf	lcd_8bit_send_string@Status^0,w,c
  2436  00264A  0012               	return		;funcret
  2437  00264C                     __end_of_lcd_8bit_send_string:
  2438                           	callstack 0
  2439                           
  2440 ;; *************** function _lcd_8bit_send_char_data *****************
  2441 ;; Defined at:
  2442 ;;		line 293 in file "ECU_Layer/Chr_LCD/ecu_chr_lcd.c"
  2443 ;; Parameters:    Size  Location     Type
  2444 ;;  lcd             2   13[COMRAM] PTR const struct .
  2445 ;;		 -> lcd_8(10), 
  2446 ;;  data            1   15[COMRAM] unsigned char 
  2447 ;; Auto vars:     Size  Location     Type
  2448 ;;  l_lcd_pins_c    1   21[COMRAM] unsigned char 
  2449 ;;  Status          1   20[COMRAM] unsigned char 
  2450 ;; Return value:  Size  Location     Type
  2451 ;;                  1    wreg      unsigned char 
  2452 ;; Registers used:
  2453 ;;		wreg, fsr2l, fsr2h, status,2, status,0, prodl, prodh, cstack
  2454 ;; Tracked objects:
  2455 ;;		On entry : 0/0
  2456 ;;		On exit  : 0/0
  2457 ;;		Unchanged: 0/0
  2458 ;; Data sizes:     COMRAM   BANK0   BANK1   BANK2   BANK3   BANK4   BANK5   BANK6   BANK7   BANK8   BANK9  BANK10  BANK1
      +1  BANK12  BANK13  BANK14  BANK15
  2459 ;;      Params:         3       0       0       0       0       0       0       0       0       0       0       0       
      +0       0       0       0       0
  2460 ;;      Locals:         2       0       0       0       0       0       0       0       0       0       0       0       
      +0       0       0       0       0
  2461 ;;      Temps:          4       0       0       0       0       0       0       0       0       0       0       0       
      +0       0       0       0       0
  2462 ;;      Totals:         9       0       0       0       0       0       0       0       0       0       0       0       
      +0       0       0       0       0
  2463 ;;Total ram usage:        9 bytes
  2464 ;; Hardware stack levels used: 1
  2465 ;; Hardware stack levels required when called: 4
  2466 ;; This function calls:
  2467 ;;		_gpio_pin_write_logic
  2468 ;; This function is called by:
  2469 ;;		_lcd_8bit_send_string
  2470 ;;		_lcd_8bit_send_char_data_pos
  2471 ;; This function uses a non-reentrant model
  2472 ;;
  2473                           
  2474                           	psect	text4
  2475  002276                     __ptext4:
  2476                           	callstack 0
  2477  002276                     _lcd_8bit_send_char_data:
  2478                           	callstack 24
  2479  002276                     
  2480                           ;ECU_Layer/Chr_LCD/ecu_chr_lcd.c: 294:     STD_ReturnType Status = (STD_ReturnType)0x01;
  2481  002276  0E01               	movlw	1
  2482  002278  6E49               	movwf	lcd_8bit_send_char_data@Status^0,c
  2483  00227A                     
  2484                           ;ECU_Layer/Chr_LCD/ecu_chr_lcd.c: 297:     if(lcd != ((void*)0)){
  2485  00227A  5042               	movf	lcd_8bit_send_char_data@lcd^0,w,c
  2486  00227C  1043               	iorwf	(lcd_8bit_send_char_data@lcd+1)^0,w,c
  2487  00227E  B4D8               	btfsc	status,2,c
  2488  002280  EF44  F011         	goto	u7941
  2489  002284  EF46  F011         	goto	u7940
  2490  002288                     u7941:
  2491  002288  EF90  F011         	goto	l8830
  2492  00228C                     u7940:
  2493  00228C                     
  2494                           ;ECU_Layer/Chr_LCD/ecu_chr_lcd.c: 298:         gpio_pin_write_logic(&(lcd->lcd_rs),HIGH)
      +                          ;
  2495  00228C  C042  F038         	movff	lcd_8bit_send_char_data@lcd,gpio_pin_write_logic@pin_config
  2496  002290  C043  F039         	movff	lcd_8bit_send_char_data@lcd+1,gpio_pin_write_logic@pin_config+1
  2497  002294  0E01               	movlw	1
  2498  002296  6E3A               	movwf	gpio_pin_write_logic@logic^0,c
  2499  002298  ECE5  F00D         	call	_gpio_pin_write_logic	;wreg free
  2500  00229C                     
  2501                           ;ECU_Layer/Chr_LCD/ecu_chr_lcd.c: 299:         for(l_lcd_pins_counter = 0 ;l_lcd_pins_co
      +                          unter < 8 ; l_lcd_pins_counter++){
  2502  00229C  0E00               	movlw	0
  2503  00229E  6E4A               	movwf	lcd_8bit_send_char_data@l_lcd_pins_counter^0,c
  2504  0022A0                     l8818:
  2505                           
  2506                           ;ECU_Layer/Chr_LCD/ecu_chr_lcd.c: 300:             gpio_pin_write_logic(&(lcd->lcd_data[
      +                          l_lcd_pins_counter]),(data >> l_lcd_pins_counter)& 0x01);
  2507  0022A0  504A               	movf	lcd_8bit_send_char_data@l_lcd_pins_counter^0,w,c
  2508  0022A2  2442               	addwf	lcd_8bit_send_char_data@lcd^0,w,c
  2509  0022A4  6E45               	movwf	??_lcd_8bit_send_char_data^0,c
  2510  0022A6  0E00               	movlw	0
  2511  0022A8  2043               	addwfc	(lcd_8bit_send_char_data@lcd+1)^0,w,c
  2512  0022AA  6E46               	movwf	(??_lcd_8bit_send_char_data+1)^0,c
  2513  0022AC  0E02               	movlw	2
  2514  0022AE  2445               	addwf	??_lcd_8bit_send_char_data^0,w,c
  2515  0022B0  6E38               	movwf	gpio_pin_write_logic@pin_config^0,c
  2516  0022B2  0E00               	movlw	0
  2517  0022B4  2046               	addwfc	(??_lcd_8bit_send_char_data+1)^0,w,c
  2518  0022B6  6E39               	movwf	(gpio_pin_write_logic@pin_config+1)^0,c
  2519  0022B8  C04A  F047         	movff	lcd_8bit_send_char_data@l_lcd_pins_counter,??_lcd_8bit_send_char_data+2
  2520  0022BC  C044  F048         	movff	lcd_8bit_send_char_data@data,??_lcd_8bit_send_char_data+3
  2521  0022C0  2A47               	incf	(??_lcd_8bit_send_char_data+2)^0,f,c
  2522  0022C2  EF65  F011         	goto	u7954
  2523  0022C6                     u7955:
  2524  0022C6  90D8               	bcf	status,0,c
  2525  0022C8  3248               	rrcf	(??_lcd_8bit_send_char_data+3)^0,f,c
  2526  0022CA                     u7954:
  2527  0022CA  2E47               	decfsz	(??_lcd_8bit_send_char_data+2)^0,f,c
  2528  0022CC  EF63  F011         	goto	u7955
  2529  0022D0  5048               	movf	(??_lcd_8bit_send_char_data+3)^0,w,c
  2530  0022D2  0B01               	andlw	1
  2531  0022D4  6E3A               	movwf	gpio_pin_write_logic@logic^0,c
  2532  0022D6  ECE5  F00D         	call	_gpio_pin_write_logic	;wreg free
  2533  0022DA                     
  2534                           ;ECU_Layer/Chr_LCD/ecu_chr_lcd.c: 302:         }
  2535  0022DA  2A4A               	incf	lcd_8bit_send_char_data@l_lcd_pins_counter^0,f,c
  2536  0022DC  0E07               	movlw	7
  2537  0022DE  644A               	cpfsgt	lcd_8bit_send_char_data@l_lcd_pins_counter^0,c
  2538  0022E0  EF74  F011         	goto	u7961
  2539  0022E4  EF76  F011         	goto	u7960
  2540  0022E8                     u7961:
  2541  0022E8  EF50  F011         	goto	l8818
  2542  0022EC                     u7960:
  2543  0022EC                     
  2544                           ;ECU_Layer/Chr_LCD/ecu_chr_lcd.c: 304:         gpio_pin_write_logic(&(lcd->lcd_en),HIGH)
      +                          ;
  2545  0022EC  0E01               	movlw	1
  2546  0022EE  2442               	addwf	lcd_8bit_send_char_data@lcd^0,w,c
  2547  0022F0  6E38               	movwf	gpio_pin_write_logic@pin_config^0,c
  2548  0022F2  0E00               	movlw	0
  2549  0022F4  2043               	addwfc	(lcd_8bit_send_char_data@lcd+1)^0,w,c
  2550  0022F6  6E39               	movwf	(gpio_pin_write_logic@pin_config+1)^0,c
  2551  0022F8  0E01               	movlw	1
  2552  0022FA  6E3A               	movwf	gpio_pin_write_logic@logic^0,c
  2553  0022FC  ECE5  F00D         	call	_gpio_pin_write_logic	;wreg free
  2554  002300                     
  2555                           ;ECU_Layer/Chr_LCD/ecu_chr_lcd.c: 305:         _delay((unsigned long)((5)*(8000000/40000
      +                          00.0)));
  2556  002300  0E03               	movlw	3
  2557  002302                     u9397:
  2558  002302  2EE8               	decfsz	wreg,f,c
  2559  002304  D7FE               	bra	u9397
  2560  002306  F000               	nop	
  2561  002308                     
  2562                           ;ECU_Layer/Chr_LCD/ecu_chr_lcd.c: 306:         gpio_pin_write_logic(&(lcd->lcd_en),LOW);
  2563  002308  0E01               	movlw	1
  2564  00230A  2442               	addwf	lcd_8bit_send_char_data@lcd^0,w,c
  2565  00230C  6E38               	movwf	gpio_pin_write_logic@pin_config^0,c
  2566  00230E  0E00               	movlw	0
  2567  002310  2043               	addwfc	(lcd_8bit_send_char_data@lcd+1)^0,w,c
  2568  002312  6E39               	movwf	(gpio_pin_write_logic@pin_config+1)^0,c
  2569  002314  0E00               	movlw	0
  2570  002316  6E3A               	movwf	gpio_pin_write_logic@logic^0,c
  2571  002318  ECE5  F00D         	call	_gpio_pin_write_logic	;wreg free
  2572                           
  2573                           ;ECU_Layer/Chr_LCD/ecu_chr_lcd.c: 307:     }
  2574  00231C  EF92  F011         	goto	l137
  2575  002320                     l8830:
  2576                           
  2577                           ;ECU_Layer/Chr_LCD/ecu_chr_lcd.c: 309:         Status = (STD_ReturnType)0x00;
  2578  002320  0E00               	movlw	0
  2579  002322  6E49               	movwf	lcd_8bit_send_char_data@Status^0,c
  2580  002324                     l137:
  2581                           
  2582                           ;ECU_Layer/Chr_LCD/ecu_chr_lcd.c: 313:     return Status;
  2583  002324  5049               	movf	lcd_8bit_send_char_data@Status^0,w,c
  2584  002326  0012               	return		;funcret
  2585  002328                     __end_of_lcd_8bit_send_char_data:
  2586                           	callstack 0
  2587                           
  2588 ;; *************** function _lcd_8bit_initialize *****************
  2589 ;; Defined at:
  2590 ;;		line 227 in file "ECU_Layer/Chr_LCD/ecu_chr_lcd.c"
  2591 ;; Parameters:    Size  Location     Type
  2592 ;;  lcd             2   22[COMRAM] PTR const struct .
  2593 ;;		 -> lcd_8(10), lcd_2(10), 
  2594 ;; Auto vars:     Size  Location     Type
  2595 ;;  Status          1   27[COMRAM] unsigned char 
  2596 ;;  l_data_pins_    1   26[COMRAM] unsigned char 
  2597 ;; Return value:  Size  Location     Type
  2598 ;;                  1    wreg      unsigned char 
  2599 ;; Registers used:
  2600 ;;		wreg, fsr2l, fsr2h, status,2, status,0, prodl, prodh, cstack
  2601 ;; Tracked objects:
  2602 ;;		On entry : 0/0
  2603 ;;		On exit  : 0/0
  2604 ;;		Unchanged: 0/0
  2605 ;; Data sizes:     COMRAM   BANK0   BANK1   BANK2   BANK3   BANK4   BANK5   BANK6   BANK7   BANK8   BANK9  BANK10  BANK1
      +1  BANK12  BANK13  BANK14  BANK15
  2606 ;;      Params:         2       0       0       0       0       0       0       0       0       0       0       0       
      +0       0       0       0       0
  2607 ;;      Locals:         2       0       0       0       0       0       0       0       0       0       0       0       
      +0       0       0       0       0
  2608 ;;      Temps:          2       0       0       0       0       0       0       0       0       0       0       0       
      +0       0       0       0       0
  2609 ;;      Totals:         6       0       0       0       0       0       0       0       0       0       0       0       
      +0       0       0       0       0
  2610 ;;Total ram usage:        6 bytes
  2611 ;; Hardware stack levels used: 1
  2612 ;; Hardware stack levels required when called: 5
  2613 ;; This function calls:
  2614 ;;		_gpio_pin_initialize
  2615 ;;		_lcd_8bit_send_command
  2616 ;; This function is called by:
  2617 ;;		_main
  2618 ;;		_ecu_layer_initialize
  2619 ;; This function uses a non-reentrant model
  2620 ;;
  2621                           
  2622                           	psect	text5
  2623  001CFA                     __ptext5:
  2624                           	callstack 0
  2625  001CFA                     _lcd_8bit_initialize:
  2626                           	callstack 25
  2627  001CFA                     
  2628                           ;ECU_Layer/Chr_LCD/ecu_chr_lcd.c: 229:     uint8 l_data_pins_counter = 0x00;
  2629  001CFA  0E00               	movlw	0
  2630  001CFC  6E4F               	movwf	lcd_8bit_initialize@l_data_pins_counter^0,c
  2631  001CFE                     
  2632                           ;ECU_Layer/Chr_LCD/ecu_chr_lcd.c: 230:     if(lcd != ((void*)0)){
  2633  001CFE  504B               	movf	lcd_8bit_initialize@lcd^0,w,c
  2634  001D00  104C               	iorwf	(lcd_8bit_initialize@lcd+1)^0,w,c
  2635  001D02  B4D8               	btfsc	status,2,c
  2636  001D04  EF86  F00E         	goto	u8401
  2637  001D08  EF88  F00E         	goto	u8400
  2638  001D0C                     u8401:
  2639  001D0C  EF0C  F00F         	goto	l9244
  2640  001D10                     u8400:
  2641  001D10                     
  2642                           ;ECU_Layer/Chr_LCD/ecu_chr_lcd.c: 231:         Status = gpio_pin_initialize(&(lcd->lcd_e
      +                          n));
  2643  001D10  0E01               	movlw	1
  2644  001D12  244B               	addwf	lcd_8bit_initialize@lcd^0,w,c
  2645  001D14  6E42               	movwf	gpio_pin_initialize@pin_config^0,c
  2646  001D16  0E00               	movlw	0
  2647  001D18  204C               	addwfc	(lcd_8bit_initialize@lcd+1)^0,w,c
  2648  001D1A  6E43               	movwf	(gpio_pin_initialize@pin_config+1)^0,c
  2649  001D1C  EC5E  F013         	call	_gpio_pin_initialize	;wreg free
  2650  001D20  6E50               	movwf	lcd_8bit_initialize@Status^0,c
  2651                           
  2652                           ;ECU_Layer/Chr_LCD/ecu_chr_lcd.c: 232:         Status = gpio_pin_initialize(&(lcd->lcd_r
      +                          s));
  2653  001D22  C04B  F042         	movff	lcd_8bit_initialize@lcd,gpio_pin_initialize@pin_config
  2654  001D26  C04C  F043         	movff	lcd_8bit_initialize@lcd+1,gpio_pin_initialize@pin_config+1
  2655  001D2A  EC5E  F013         	call	_gpio_pin_initialize	;wreg free
  2656  001D2E  6E50               	movwf	lcd_8bit_initialize@Status^0,c
  2657  001D30                     
  2658                           ;ECU_Layer/Chr_LCD/ecu_chr_lcd.c: 233:         for(l_data_pins_counter = 0; l_data_pins_
      +                          counter < 8 ; l_data_pins_counter++){
  2659  001D30  0E00               	movlw	0
  2660  001D32  6E4F               	movwf	lcd_8bit_initialize@l_data_pins_counter^0,c
  2661  001D34                     l9216:
  2662  001D34  504F               	movf	lcd_8bit_initialize@l_data_pins_counter^0,w,c
  2663  001D36  244B               	addwf	lcd_8bit_initialize@lcd^0,w,c
  2664  001D38  6E4D               	movwf	??_lcd_8bit_initialize^0,c
  2665  001D3A  0E00               	movlw	0
  2666  001D3C  204C               	addwfc	(lcd_8bit_initialize@lcd+1)^0,w,c
  2667  001D3E  6E4E               	movwf	(??_lcd_8bit_initialize+1)^0,c
  2668  001D40  0E02               	movlw	2
  2669  001D42  244D               	addwf	??_lcd_8bit_initialize^0,w,c
  2670  001D44  6E42               	movwf	gpio_pin_initialize@pin_config^0,c
  2671  001D46  0E00               	movlw	0
  2672  001D48  204E               	addwfc	(??_lcd_8bit_initialize+1)^0,w,c
  2673  001D4A  6E43               	movwf	(gpio_pin_initialize@pin_config+1)^0,c
  2674  001D4C  EC5E  F013         	call	_gpio_pin_initialize	;wreg free
  2675  001D50                     
  2676                           ;ECU_Layer/Chr_LCD/ecu_chr_lcd.c: 235:         }
  2677  001D50  2A4F               	incf	lcd_8bit_initialize@l_data_pins_counter^0,f,c
  2678  001D52  0E07               	movlw	7
  2679  001D54  644F               	cpfsgt	lcd_8bit_initialize@l_data_pins_counter^0,c
  2680  001D56  EFAF  F00E         	goto	u8411
  2681  001D5A  EFB1  F00E         	goto	u8410
  2682  001D5E                     u8411:
  2683  001D5E  EF9A  F00E         	goto	l9216
  2684  001D62                     u8410:
  2685  001D62                     
  2686                           ;ECU_Layer/Chr_LCD/ecu_chr_lcd.c: 238:         _delay((unsigned long)((20)*(8000000/4000
      +                          .0)));
  2687  001D62  0E34               	movlw	52
  2688  001D64  6E4D               	movwf	??_lcd_8bit_initialize^0,c
  2689  001D66  0EF2               	movlw	242
  2690  001D68                     u9407:
  2691  001D68  2EE8               	decfsz	wreg,f,c
  2692  001D6A  D7FE               	bra	u9407
  2693  001D6C  2E4D               	decfsz	??_lcd_8bit_initialize^0,f,c
  2694  001D6E  D7FC               	bra	u9407
  2695  001D70  C04B  F042         	movff	lcd_8bit_initialize@lcd,lcd_8bit_send_command@lcd
  2696  001D74  C04C  F043         	movff	lcd_8bit_initialize@lcd+1,lcd_8bit_send_command@lcd+1
  2697  001D78  0E38               	movlw	56
  2698  001D7A  6E44               	movwf	lcd_8bit_send_command@command^0,c
  2699  001D7C  EC94  F011         	call	_lcd_8bit_send_command	;wreg free
  2700  001D80                     
  2701                           ;ECU_Layer/Chr_LCD/ecu_chr_lcd.c: 240:         _delay((unsigned long)((5)*(8000000/4000.
      +                          0)));
  2702  001D80  0E0D               	movlw	13
  2703  001D82  6E4D               	movwf	??_lcd_8bit_initialize^0,c
  2704  001D84  0EFC               	movlw	252
  2705  001D86                     u9417:
  2706  001D86  2EE8               	decfsz	wreg,f,c
  2707  001D88  D7FE               	bra	u9417
  2708  001D8A  2E4D               	decfsz	??_lcd_8bit_initialize^0,f,c
  2709  001D8C  D7FC               	bra	u9417
  2710  001D8E  C04B  F042         	movff	lcd_8bit_initialize@lcd,lcd_8bit_send_command@lcd
  2711  001D92  C04C  F043         	movff	lcd_8bit_initialize@lcd+1,lcd_8bit_send_command@lcd+1
  2712  001D96  0E38               	movlw	56
  2713  001D98  6E44               	movwf	lcd_8bit_send_command@command^0,c
  2714  001D9A  EC94  F011         	call	_lcd_8bit_send_command	;wreg free
  2715  001D9E                     
  2716                           ;ECU_Layer/Chr_LCD/ecu_chr_lcd.c: 242:         _delay((unsigned long)((150)*(8000000/400
      +                          0000.0)));
  2717  001D9E  0E64               	movlw	100
  2718  001DA0                     u9427:
  2719  001DA0  2EE8               	decfsz	wreg,f,c
  2720  001DA2  D7FE               	bra	u9427
  2721  001DA4  C04B  F042         	movff	lcd_8bit_initialize@lcd,lcd_8bit_send_command@lcd
  2722  001DA8  C04C  F043         	movff	lcd_8bit_initialize@lcd+1,lcd_8bit_send_command@lcd+1
  2723  001DAC  0E38               	movlw	56
  2724  001DAE  6E44               	movwf	lcd_8bit_send_command@command^0,c
  2725  001DB0  EC94  F011         	call	_lcd_8bit_send_command	;wreg free
  2726  001DB4  C04B  F042         	movff	lcd_8bit_initialize@lcd,lcd_8bit_send_command@lcd
  2727  001DB8  C04C  F043         	movff	lcd_8bit_initialize@lcd+1,lcd_8bit_send_command@lcd+1
  2728  001DBC  0E01               	movlw	1
  2729  001DBE  6E44               	movwf	lcd_8bit_send_command@command^0,c
  2730  001DC0  EC94  F011         	call	_lcd_8bit_send_command	;wreg free
  2731  001DC4  C04B  F042         	movff	lcd_8bit_initialize@lcd,lcd_8bit_send_command@lcd
  2732  001DC8  C04C  F043         	movff	lcd_8bit_initialize@lcd+1,lcd_8bit_send_command@lcd+1
  2733  001DCC  0E02               	movlw	2
  2734  001DCE  6E44               	movwf	lcd_8bit_send_command@command^0,c
  2735  001DD0  EC94  F011         	call	_lcd_8bit_send_command	;wreg free
  2736  001DD4  C04B  F042         	movff	lcd_8bit_initialize@lcd,lcd_8bit_send_command@lcd
  2737  001DD8  C04C  F043         	movff	lcd_8bit_initialize@lcd+1,lcd_8bit_send_command@lcd+1
  2738  001DDC  0E06               	movlw	6
  2739  001DDE  6E44               	movwf	lcd_8bit_send_command@command^0,c
  2740  001DE0  EC94  F011         	call	_lcd_8bit_send_command	;wreg free
  2741  001DE4  C04B  F042         	movff	lcd_8bit_initialize@lcd,lcd_8bit_send_command@lcd
  2742  001DE8  C04C  F043         	movff	lcd_8bit_initialize@lcd+1,lcd_8bit_send_command@lcd+1
  2743  001DEC  0E0C               	movlw	12
  2744  001DEE  6E44               	movwf	lcd_8bit_send_command@command^0,c
  2745  001DF0  EC94  F011         	call	_lcd_8bit_send_command	;wreg free
  2746  001DF4  C04B  F042         	movff	lcd_8bit_initialize@lcd,lcd_8bit_send_command@lcd
  2747  001DF8  C04C  F043         	movff	lcd_8bit_initialize@lcd+1,lcd_8bit_send_command@lcd+1
  2748  001DFC  0E38               	movlw	56
  2749  001DFE  6E44               	movwf	lcd_8bit_send_command@command^0,c
  2750  001E00  EC94  F011         	call	_lcd_8bit_send_command	;wreg free
  2751  001E04  C04B  F042         	movff	lcd_8bit_initialize@lcd,lcd_8bit_send_command@lcd
  2752  001E08  C04C  F043         	movff	lcd_8bit_initialize@lcd+1,lcd_8bit_send_command@lcd+1
  2753  001E0C  0E80               	movlw	128
  2754  001E0E  6E44               	movwf	lcd_8bit_send_command@command^0,c
  2755  001E10  EC94  F011         	call	_lcd_8bit_send_command	;wreg free
  2756                           
  2757                           ;ECU_Layer/Chr_LCD/ecu_chr_lcd.c: 256:     }
  2758  001E14  EF0C  F00F         	goto	l124
  2759  001E18                     l9244:
  2760  001E18                     l124:
  2761  001E18  0012               	return		;funcret
  2762  001E1A                     __end_of_lcd_8bit_initialize:
  2763                           	callstack 0
  2764                           
  2765 ;; *************** function _lcd_8bit_send_command *****************
  2766 ;; Defined at:
  2767 ;;		line 266 in file "ECU_Layer/Chr_LCD/ecu_chr_lcd.c"
  2768 ;; Parameters:    Size  Location     Type
  2769 ;;  lcd             2   13[COMRAM] PTR const struct .
  2770 ;;		 -> lcd_8(10), lcd_2(10), 
  2771 ;;  command         1   15[COMRAM] unsigned char 
  2772 ;; Auto vars:     Size  Location     Type
  2773 ;;  l_lcd_pins_c    1   21[COMRAM] unsigned char 
  2774 ;;  Status          1   20[COMRAM] unsigned char 
  2775 ;; Return value:  Size  Location     Type
  2776 ;;                  1    wreg      unsigned char 
  2777 ;; Registers used:
  2778 ;;		wreg, fsr2l, fsr2h, status,2, status,0, prodl, prodh, cstack
  2779 ;; Tracked objects:
  2780 ;;		On entry : 0/0
  2781 ;;		On exit  : 0/0
  2782 ;;		Unchanged: 0/0
  2783 ;; Data sizes:     COMRAM   BANK0   BANK1   BANK2   BANK3   BANK4   BANK5   BANK6   BANK7   BANK8   BANK9  BANK10  BANK1
      +1  BANK12  BANK13  BANK14  BANK15
  2784 ;;      Params:         3       0       0       0       0       0       0       0       0       0       0       0       
      +0       0       0       0       0
  2785 ;;      Locals:         2       0       0       0       0       0       0       0       0       0       0       0       
      +0       0       0       0       0
  2786 ;;      Temps:          4       0       0       0       0       0       0       0       0       0       0       0       
      +0       0       0       0       0
  2787 ;;      Totals:         9       0       0       0       0       0       0       0       0       0       0       0       
      +0       0       0       0       0
  2788 ;;Total ram usage:        9 bytes
  2789 ;; Hardware stack levels used: 1
  2790 ;; Hardware stack levels required when called: 4
  2791 ;; This function calls:
  2792 ;;		_gpio_pin_write_logic
  2793 ;; This function is called by:
  2794 ;;		_lcd_8bit_initialize
  2795 ;;		_lcd_8bit_set_cursor
  2796 ;;		_main
  2797 ;; This function uses a non-reentrant model
  2798 ;;
  2799                           
  2800                           	psect	text6
  2801  002328                     __ptext6:
  2802                           	callstack 0
  2803  002328                     _lcd_8bit_send_command:
  2804                           	callstack 24
  2805  002328                     
  2806                           ;ECU_Layer/Chr_LCD/ecu_chr_lcd.c: 267:     STD_ReturnType Status = (STD_ReturnType)0x01;
  2807  002328  0E01               	movlw	1
  2808  00232A  6E49               	movwf	lcd_8bit_send_command@Status^0,c
  2809  00232C                     
  2810                           ;ECU_Layer/Chr_LCD/ecu_chr_lcd.c: 269:     if(lcd != ((void*)0)){
  2811  00232C  5042               	movf	lcd_8bit_send_command@lcd^0,w,c
  2812  00232E  1043               	iorwf	(lcd_8bit_send_command@lcd+1)^0,w,c
  2813  002330  B4D8               	btfsc	status,2,c
  2814  002332  EF9D  F011         	goto	u7911
  2815  002336  EF9F  F011         	goto	u7910
  2816  00233A                     u7911:
  2817  00233A  EFE9  F011         	goto	l8802
  2818  00233E                     u7910:
  2819  00233E                     
  2820                           ;ECU_Layer/Chr_LCD/ecu_chr_lcd.c: 270:         gpio_pin_write_logic(&(lcd->lcd_rs),LOW);
  2821  00233E  C042  F038         	movff	lcd_8bit_send_command@lcd,gpio_pin_write_logic@pin_config
  2822  002342  C043  F039         	movff	lcd_8bit_send_command@lcd+1,gpio_pin_write_logic@pin_config+1
  2823  002346  0E00               	movlw	0
  2824  002348  6E3A               	movwf	gpio_pin_write_logic@logic^0,c
  2825  00234A  ECE5  F00D         	call	_gpio_pin_write_logic	;wreg free
  2826  00234E                     
  2827                           ;ECU_Layer/Chr_LCD/ecu_chr_lcd.c: 271:         for(l_lcd_pins_counter = 0 ;l_lcd_pins_co
      +                          unter < 8 ; l_lcd_pins_counter++){
  2828  00234E  0E00               	movlw	0
  2829  002350  6E4A               	movwf	lcd_8bit_send_command@l_lcd_pins_counter^0,c
  2830  002352                     l8790:
  2831                           
  2832                           ;ECU_Layer/Chr_LCD/ecu_chr_lcd.c: 272:             gpio_pin_write_logic(&(lcd->lcd_data[
      +                          l_lcd_pins_counter]),(command >> l_lcd_pins_counter)& 0x01);
  2833  002352  504A               	movf	lcd_8bit_send_command@l_lcd_pins_counter^0,w,c
  2834  002354  2442               	addwf	lcd_8bit_send_command@lcd^0,w,c
  2835  002356  6E45               	movwf	??_lcd_8bit_send_command^0,c
  2836  002358  0E00               	movlw	0
  2837  00235A  2043               	addwfc	(lcd_8bit_send_command@lcd+1)^0,w,c
  2838  00235C  6E46               	movwf	(??_lcd_8bit_send_command+1)^0,c
  2839  00235E  0E02               	movlw	2
  2840  002360  2445               	addwf	??_lcd_8bit_send_command^0,w,c
  2841  002362  6E38               	movwf	gpio_pin_write_logic@pin_config^0,c
  2842  002364  0E00               	movlw	0
  2843  002366  2046               	addwfc	(??_lcd_8bit_send_command+1)^0,w,c
  2844  002368  6E39               	movwf	(gpio_pin_write_logic@pin_config+1)^0,c
  2845  00236A  C04A  F047         	movff	lcd_8bit_send_command@l_lcd_pins_counter,??_lcd_8bit_send_command+2
  2846  00236E  C044  F048         	movff	lcd_8bit_send_command@command,??_lcd_8bit_send_command+3
  2847  002372  2A47               	incf	(??_lcd_8bit_send_command+2)^0,f,c
  2848  002374  EFBE  F011         	goto	u7924
  2849  002378                     u7925:
  2850  002378  90D8               	bcf	status,0,c
  2851  00237A  3248               	rrcf	(??_lcd_8bit_send_command+3)^0,f,c
  2852  00237C                     u7924:
  2853  00237C  2E47               	decfsz	(??_lcd_8bit_send_command+2)^0,f,c
  2854  00237E  EFBC  F011         	goto	u7925
  2855  002382  5048               	movf	(??_lcd_8bit_send_command+3)^0,w,c
  2856  002384  0B01               	andlw	1
  2857  002386  6E3A               	movwf	gpio_pin_write_logic@logic^0,c
  2858  002388  ECE5  F00D         	call	_gpio_pin_write_logic	;wreg free
  2859  00238C                     
  2860                           ;ECU_Layer/Chr_LCD/ecu_chr_lcd.c: 274:         }
  2861  00238C  2A4A               	incf	lcd_8bit_send_command@l_lcd_pins_counter^0,f,c
  2862  00238E  0E07               	movlw	7
  2863  002390  644A               	cpfsgt	lcd_8bit_send_command@l_lcd_pins_counter^0,c
  2864  002392  EFCD  F011         	goto	u7931
  2865  002396  EFCF  F011         	goto	u7930
  2866  00239A                     u7931:
  2867  00239A  EFA9  F011         	goto	l8790
  2868  00239E                     u7930:
  2869  00239E                     
  2870                           ;ECU_Layer/Chr_LCD/ecu_chr_lcd.c: 276:         gpio_pin_write_logic(&(lcd->lcd_en),HIGH)
      +                          ;
  2871  00239E  0E01               	movlw	1
  2872  0023A0  2442               	addwf	lcd_8bit_send_command@lcd^0,w,c
  2873  0023A2  6E38               	movwf	gpio_pin_write_logic@pin_config^0,c
  2874  0023A4  0E00               	movlw	0
  2875  0023A6  2043               	addwfc	(lcd_8bit_send_command@lcd+1)^0,w,c
  2876  0023A8  6E39               	movwf	(gpio_pin_write_logic@pin_config+1)^0,c
  2877  0023AA  0E01               	movlw	1
  2878  0023AC  6E3A               	movwf	gpio_pin_write_logic@logic^0,c
  2879  0023AE  ECE5  F00D         	call	_gpio_pin_write_logic	;wreg free
  2880  0023B2                     
  2881                           ;ECU_Layer/Chr_LCD/ecu_chr_lcd.c: 277:         _delay((unsigned long)((5)*(8000000/40000
      +                          00.0)));
  2882  0023B2  0E03               	movlw	3
  2883  0023B4                     u9437:
  2884  0023B4  2EE8               	decfsz	wreg,f,c
  2885  0023B6  D7FE               	bra	u9437
  2886  0023B8  F000               	nop	
  2887  0023BA                     
  2888                           ;ECU_Layer/Chr_LCD/ecu_chr_lcd.c: 278:         gpio_pin_write_logic(&(lcd->lcd_en),LOW);
  2889  0023BA  0E01               	movlw	1
  2890  0023BC  2442               	addwf	lcd_8bit_send_command@lcd^0,w,c
  2891  0023BE  6E38               	movwf	gpio_pin_write_logic@pin_config^0,c
  2892  0023C0  0E00               	movlw	0
  2893  0023C2  2043               	addwfc	(lcd_8bit_send_command@lcd+1)^0,w,c
  2894  0023C4  6E39               	movwf	(gpio_pin_write_logic@pin_config+1)^0,c
  2895  0023C6  0E00               	movlw	0
  2896  0023C8  6E3A               	movwf	gpio_pin_write_logic@logic^0,c
  2897  0023CA  ECE5  F00D         	call	_gpio_pin_write_logic	;wreg free
  2898                           
  2899                           ;ECU_Layer/Chr_LCD/ecu_chr_lcd.c: 282:     }
  2900  0023CE  EFEB  F011         	goto	l130
  2901  0023D2                     l8802:
  2902                           
  2903                           ;ECU_Layer/Chr_LCD/ecu_chr_lcd.c: 284:         Status = (STD_ReturnType)0x00;
  2904  0023D2  0E00               	movlw	0
  2905  0023D4  6E49               	movwf	lcd_8bit_send_command@Status^0,c
  2906  0023D6                     l130:
  2907                           
  2908                           ;ECU_Layer/Chr_LCD/ecu_chr_lcd.c: 289:     return Status;
  2909  0023D6  5049               	movf	lcd_8bit_send_command@Status^0,w,c
  2910  0023D8  0012               	return		;funcret
  2911  0023DA                     __end_of_lcd_8bit_send_command:
  2912                           	callstack 0
  2913                           
  2914 ;; *************** function _keypad_initialize *****************
  2915 ;; Defined at:
  2916 ;;		line 25 in file "ECU_Layer/Keypad/ecu_keypad.c"
  2917 ;; Parameters:    Size  Location     Type
  2918 ;;  keypad          2   17[COMRAM] PTR const struct .
  2919 ;;		 -> keypad1(8), 
  2920 ;; Auto vars:     Size  Location     Type
  2921 ;;  column_count    1   22[COMRAM] unsigned char 
  2922 ;;  row_counter     1   21[COMRAM] unsigned char 
  2923 ;;  Status          1    0        unsigned char 
  2924 ;; Return value:  Size  Location     Type
  2925 ;;                  1    wreg      unsigned char 
  2926 ;; Registers used:
  2927 ;;		wreg, fsr2l, fsr2h, status,2, status,0, prodl, prodh, cstack
  2928 ;; Tracked objects:
  2929 ;;		On entry : 0/0
  2930 ;;		On exit  : 0/0
  2931 ;;		Unchanged: 0/0
  2932 ;; Data sizes:     COMRAM   BANK0   BANK1   BANK2   BANK3   BANK4   BANK5   BANK6   BANK7   BANK8   BANK9  BANK10  BANK1
      +1  BANK12  BANK13  BANK14  BANK15
  2933 ;;      Params:         2       0       0       0       0       0       0       0       0       0       0       0       
      +0       0       0       0       0
  2934 ;;      Locals:         2       0       0       0       0       0       0       0       0       0       0       0       
      +0       0       0       0       0
  2935 ;;      Temps:          2       0       0       0       0       0       0       0       0       0       0       0       
      +0       0       0       0       0
  2936 ;;      Totals:         6       0       0       0       0       0       0       0       0       0       0       0       
      +0       0       0       0       0
  2937 ;;Total ram usage:        6 bytes
  2938 ;; Hardware stack levels used: 1
  2939 ;; Hardware stack levels required when called: 5
  2940 ;; This function calls:
  2941 ;;		_gpio_pin_direction_initialize
  2942 ;;		_gpio_pin_initialize
  2943 ;; This function is called by:
  2944 ;;		_main
  2945 ;; This function uses a non-reentrant model
  2946 ;;
  2947                           
  2948                           	psect	text7
  2949  00264C                     __ptext7:
  2950                           	callstack 0
  2951  00264C                     _keypad_initialize:
  2952                           	callstack 25
  2953  00264C                     
  2954                           ;ECU_Layer/Keypad/ecu_keypad.c: 27:     if(keypad != ((void*)0)){
  2955  00264C  5046               	movf	keypad_initialize@keypad^0,w,c
  2956  00264E  1047               	iorwf	(keypad_initialize@keypad+1)^0,w,c
  2957  002650  B4D8               	btfsc	status,2,c
  2958  002652  EF2D  F013         	goto	u8441
  2959  002656  EF2F  F013         	goto	u8440
  2960  00265A                     u8441:
  2961  00265A  EF5D  F013         	goto	l9290
  2962  00265E                     u8440:
  2963  00265E                     
  2964                           ;ECU_Layer/Keypad/ecu_keypad.c: 28:         for(uint8 row_counter = 0x00 ; row_counter <
      +                           ((uint8)4) ; row_counter++){
  2965  00265E  0E00               	movlw	0
  2966  002660  6E4A               	movwf	keypad_initialize@row_counter^0,c
  2967  002662                     l9272:
  2968                           
  2969                           ;ECU_Layer/Keypad/ecu_keypad.c: 29:             gpio_pin_initialize(&(keypad->keypad_row
      +                          s[row_counter]));
  2970  002662  504A               	movf	keypad_initialize@row_counter^0,w,c
  2971  002664  2446               	addwf	keypad_initialize@keypad^0,w,c
  2972  002666  6E42               	movwf	gpio_pin_initialize@pin_config^0,c
  2973  002668  0E00               	movlw	0
  2974  00266A  2047               	addwfc	(keypad_initialize@keypad+1)^0,w,c
  2975  00266C  6E43               	movwf	(gpio_pin_initialize@pin_config+1)^0,c
  2976  00266E  EC5E  F013         	call	_gpio_pin_initialize	;wreg free
  2977  002672                     
  2978                           ;ECU_Layer/Keypad/ecu_keypad.c: 30:         }
  2979  002672  2A4A               	incf	keypad_initialize@row_counter^0,f,c
  2980  002674  0E03               	movlw	3
  2981  002676  644A               	cpfsgt	keypad_initialize@row_counter^0,c
  2982  002678  EF40  F013         	goto	u8451
  2983  00267C  EF42  F013         	goto	u8450
  2984  002680                     u8451:
  2985  002680  EF31  F013         	goto	l9272
  2986  002684                     u8450:
  2987  002684                     
  2988                           ;ECU_Layer/Keypad/ecu_keypad.c: 31:         for(uint8 column_counter = 0x00 ; column_cou
      +                          nter < ((uint8)4) ; column_counter++){
  2989  002684  0E00               	movlw	0
  2990  002686  6E4B               	movwf	keypad_initialize@column_counter^0,c
  2991  002688                     l9284:
  2992                           
  2993                           ;ECU_Layer/Keypad/ecu_keypad.c: 32:             gpio_pin_direction_initialize(&(keypad->
      +                          keypad_columns[column_counter]));
  2994  002688  504B               	movf	keypad_initialize@column_counter^0,w,c
  2995  00268A  2446               	addwf	keypad_initialize@keypad^0,w,c
  2996  00268C  6E48               	movwf	??_keypad_initialize^0,c
  2997  00268E  0E00               	movlw	0
  2998  002690  2047               	addwfc	(keypad_initialize@keypad+1)^0,w,c
  2999  002692  6E49               	movwf	(??_keypad_initialize+1)^0,c
  3000  002694  0E04               	movlw	4
  3001  002696  2448               	addwf	??_keypad_initialize^0,w,c
  3002  002698  6E38               	movwf	gpio_pin_direction_initialize@pin_config^0,c
  3003  00269A  0E00               	movlw	0
  3004  00269C  2049               	addwfc	(??_keypad_initialize+1)^0,w,c
  3005  00269E  6E39               	movwf	(gpio_pin_direction_initialize@pin_config+1)^0,c
  3006  0026A0  EC41  F00D         	call	_gpio_pin_direction_initialize	;wreg free
  3007  0026A4                     
  3008                           ;ECU_Layer/Keypad/ecu_keypad.c: 33:         }
  3009  0026A4  2A4B               	incf	keypad_initialize@column_counter^0,f,c
  3010  0026A6  0E03               	movlw	3
  3011  0026A8  644B               	cpfsgt	keypad_initialize@column_counter^0,c
  3012  0026AA  EF59  F013         	goto	u8461
  3013  0026AE  EF5B  F013         	goto	u8460
  3014  0026B2                     u8461:
  3015  0026B2  EF44  F013         	goto	l9284
  3016  0026B6                     u8460:
  3017  0026B6  EF5D  F013         	goto	l231
  3018  0026BA                     l9290:
  3019  0026BA                     l231:
  3020  0026BA  0012               	return		;funcret
  3021  0026BC                     __end_of_keypad_initialize:
  3022                           	callstack 0
  3023                           
  3024 ;; *************** function _gpio_pin_initialize *****************
  3025 ;; Defined at:
  3026 ;;		line 150 in file "MCAL_Layer/GPIO/hal_gpio.c"
  3027 ;; Parameters:    Size  Location     Type
  3028 ;;  pin_config      2   13[COMRAM] PTR const struct .
  3029 ;;		 -> rd5(1), rd4(1), rd3(1), rd2(1), 
  3030 ;;		 -> rd1(1), rd0(1), rc6(1), rc5(1), 
  3031 ;;		 -> rc4(1), rc3(1), rc2(1), rc1(1), 
  3032 ;;		 -> rc0(1), lcd_8.lcd_data(8), lcd_8(10), keypad1.keypad_rows(4), 
  3033 ;;		 -> keypad1(8), lcd_2.lcd_data(8), lcd_2(10), lcd_1.lcd_data(4), 
  3034 ;;		 -> lcd_1(6), relay_initialize@relay_pin(1), led_initialize@pin_obj(1), 
  3035 ;; Auto vars:     Size  Location     Type
  3036 ;;  Status          1   16[COMRAM] unsigned char 
  3037 ;; Return value:  Size  Location     Type
  3038 ;;                  1    wreg      unsigned char 
  3039 ;; Registers used:
  3040 ;;		wreg, fsr2l, fsr2h, status,2, status,0, prodl, prodh, cstack
  3041 ;; Tracked objects:
  3042 ;;		On entry : 0/0
  3043 ;;		On exit  : 0/0
  3044 ;;		Unchanged: 0/0
  3045 ;; Data sizes:     COMRAM   BANK0   BANK1   BANK2   BANK3   BANK4   BANK5   BANK6   BANK7   BANK8   BANK9  BANK10  BANK1
      +1  BANK12  BANK13  BANK14  BANK15
  3046 ;;      Params:         2       0       0       0       0       0       0       0       0       0       0       0       
      +0       0       0       0       0
  3047 ;;      Locals:         1       0       0       0       0       0       0       0       0       0       0       0       
      +0       0       0       0       0
  3048 ;;      Temps:          1       0       0       0       0       0       0       0       0       0       0       0       
      +0       0       0       0       0
  3049 ;;      Totals:         4       0       0       0       0       0       0       0       0       0       0       0       
      +0       0       0       0       0
  3050 ;;Total ram usage:        4 bytes
  3051 ;; Hardware stack levels used: 1
  3052 ;; Hardware stack levels required when called: 4
  3053 ;; This function calls:
  3054 ;;		_gpio_pin_direction_initialize
  3055 ;;		_gpio_pin_write_logic
  3056 ;; This function is called by:
  3057 ;;		_lcd_8bit_initialize
  3058 ;;		_keypad_initialize
  3059 ;;		_main
  3060 ;;		_Seven_Segment_Initialize
  3061 ;;		_lcd_4bit_initialize
  3062 ;;		_led_initialize
  3063 ;;		_relay_initialize
  3064 ;; This function uses a non-reentrant model
  3065 ;;
  3066                           
  3067                           	psect	text8
  3068  0026BC                     __ptext8:
  3069                           	callstack 0
  3070  0026BC                     _gpio_pin_initialize:
  3071                           	callstack 25
  3072  0026BC                     
  3073                           ;MCAL_Layer/GPIO/hal_gpio.c: 152:     if(pin_config != ((void*)0) && pin_config->pin < (
      +                          (uint8)8)){
  3074  0026BC  5042               	movf	gpio_pin_initialize@pin_config^0,w,c
  3075  0026BE  1043               	iorwf	(gpio_pin_initialize@pin_config+1)^0,w,c
  3076  0026C0  B4D8               	btfsc	status,2,c
  3077  0026C2  EF65  F013         	goto	u8001
  3078  0026C6  EF67  F013         	goto	u8000
  3079  0026CA                     u8001:
  3080  0026CA  EF90  F013         	goto	l8860
  3081  0026CE                     u8000:
  3082  0026CE  C042  FFD9         	movff	gpio_pin_initialize@pin_config,fsr2l
  3083  0026D2  C043  FFDA         	movff	gpio_pin_initialize@pin_config+1,fsr2h
  3084  0026D6  30DF               	rrcf	223,w,c
  3085  0026D8  32E8               	rrcf	wreg,f,c
  3086  0026DA  32E8               	rrcf	wreg,f,c
  3087  0026DC  0B07               	andlw	7
  3088  0026DE  6E44               	movwf	??_gpio_pin_initialize^0,c
  3089  0026E0  0E08               	movlw	8
  3090  0026E2  6044               	cpfslt	??_gpio_pin_initialize^0,c
  3091  0026E4  EF76  F013         	goto	u8011
  3092  0026E8  EF78  F013         	goto	u8010
  3093  0026EC                     u8011:
  3094  0026EC  EF90  F013         	goto	l8860
  3095  0026F0                     u8010:
  3096  0026F0                     
  3097                           ;MCAL_Layer/GPIO/hal_gpio.c: 153:         Status = gpio_pin_direction_initialize(pin_con
      +                          fig);
  3098  0026F0  C042  F038         	movff	gpio_pin_initialize@pin_config,gpio_pin_direction_initialize@pin_config
  3099  0026F4  C043  F039         	movff	gpio_pin_initialize@pin_config+1,gpio_pin_direction_initialize@pin_config+1
  3100  0026F8  EC41  F00D         	call	_gpio_pin_direction_initialize	;wreg free
  3101  0026FC  6E45               	movwf	gpio_pin_initialize@Status^0,c
  3102                           
  3103                           ;MCAL_Layer/GPIO/hal_gpio.c: 154:         Status = gpio_pin_write_logic(pin_config,pin_c
      +                          onfig->logic);
  3104  0026FE  C042  F038         	movff	gpio_pin_initialize@pin_config,gpio_pin_write_logic@pin_config
  3105  002702  C043  F039         	movff	gpio_pin_initialize@pin_config+1,gpio_pin_write_logic@pin_config+1
  3106  002706  C042  FFD9         	movff	gpio_pin_initialize@pin_config,fsr2l
  3107  00270A  C043  FFDA         	movff	gpio_pin_initialize@pin_config+1,fsr2h
  3108  00270E  0E00               	movlw	0
  3109  002710  BEDF               	btfsc	indf2,7,c
  3110  002712  0E01               	movlw	1
  3111  002714  6E3A               	movwf	gpio_pin_write_logic@logic^0,c
  3112  002716  ECE5  F00D         	call	_gpio_pin_write_logic	;wreg free
  3113  00271A  6E45               	movwf	gpio_pin_initialize@Status^0,c
  3114                           
  3115                           ;MCAL_Layer/GPIO/hal_gpio.c: 155:     }
  3116  00271C  EF92  F013         	goto	l791
  3117  002720                     l8860:
  3118                           
  3119                           ;MCAL_Layer/GPIO/hal_gpio.c: 157:         Status = (STD_ReturnType)0x00;
  3120  002720  0E00               	movlw	0
  3121  002722  6E45               	movwf	gpio_pin_initialize@Status^0,c
  3122  002724                     l791:
  3123                           
  3124                           ;MCAL_Layer/GPIO/hal_gpio.c: 159:     return Status;
  3125  002724  5045               	movf	gpio_pin_initialize@Status^0,w,c
  3126  002726  0012               	return		;funcret
  3127  002728                     __end_of_gpio_pin_initialize:
  3128                           	callstack 0
  3129                           
  3130 ;; *************** function _gpio_pin_direction_initialize *****************
  3131 ;; Defined at:
  3132 ;;		line 23 in file "MCAL_Layer/GPIO/hal_gpio.c"
  3133 ;; Parameters:    Size  Location     Type
  3134 ;;  pin_config      2    3[COMRAM] PTR const struct .
  3135 ;;		 -> rd5(1), rd4(1), rd3(1), rd2(1), 
  3136 ;;		 -> rd1(1), rd0(1), rc6(1), rc5(1), 
  3137 ;;		 -> rc4(1), rc3(1), rc2(1), rc1(1), 
  3138 ;;		 -> rc0(1), lcd_8.lcd_data(8), lcd_8(10), keypad1.keypad_columns(4), 
  3139 ;;		 -> keypad1.keypad_rows(4), keypad1(8), lcd_2.lcd_data(8), lcd_2(10), 
  3140 ;;		 -> lcd_1.lcd_data(4), lcd_1(6), relay_initialize@relay_pin(1), led_initialize@pin_obj(1), 
  3141 ;; Auto vars:     Size  Location     Type
  3142 ;;  Status          1   11[COMRAM] unsigned char 
  3143 ;; Return value:  Size  Location     Type
  3144 ;;                  1    wreg      unsigned char 
  3145 ;; Registers used:
  3146 ;;		wreg, fsr2l, fsr2h, status,2, status,0, prodl, prodh
  3147 ;; Tracked objects:
  3148 ;;		On entry : 0/0
  3149 ;;		On exit  : 0/0
  3150 ;;		Unchanged: 0/0
  3151 ;; Data sizes:     COMRAM   BANK0   BANK1   BANK2   BANK3   BANK4   BANK5   BANK6   BANK7   BANK8   BANK9  BANK10  BANK1
      +1  BANK12  BANK13  BANK14  BANK15
  3152 ;;      Params:         2       0       0       0       0       0       0       0       0       0       0       0       
      +0       0       0       0       0
  3153 ;;      Locals:         1       0       0       0       0       0       0       0       0       0       0       0       
      +0       0       0       0       0
  3154 ;;      Temps:          6       0       0       0       0       0       0       0       0       0       0       0       
      +0       0       0       0       0
  3155 ;;      Totals:         9       0       0       0       0       0       0       0       0       0       0       0       
      +0       0       0       0       0
  3156 ;;Total ram usage:        9 bytes
  3157 ;; Hardware stack levels used: 1
  3158 ;; Hardware stack levels required when called: 3
  3159 ;; This function calls:
  3160 ;;		Nothing
  3161 ;; This function is called by:
  3162 ;;		_keypad_initialize
  3163 ;;		_gpio_pin_initialize
  3164 ;;		_button_initialize
  3165 ;;		_dc_motor_initialize
  3166 ;;		_Interrupt_INTx_Pin_Init
  3167 ;;		_Interrupt_RBx_Pin_Init
  3168 ;; This function uses a non-reentrant model
  3169 ;;
  3170                           
  3171                           	psect	text9
  3172  001A82                     __ptext9:
  3173                           	callstack 0
  3174  001A82                     _gpio_pin_direction_initialize:
  3175                           	callstack 25
  3176  001A82                     
  3177                           ;MCAL_Layer/GPIO/hal_gpio.c: 24:     STD_ReturnType Status = (STD_ReturnType)0x01;
  3178  001A82  0E01               	movlw	1
  3179  001A84  6E40               	movwf	gpio_pin_direction_initialize@Status^0,c
  3180  001A86                     
  3181                           ;MCAL_Layer/GPIO/hal_gpio.c: 25:     if(pin_config != ((void*)0) && pin_config->pin < ((
      +                          uint8)8)){
  3182  001A86  5038               	movf	gpio_pin_direction_initialize@pin_config^0,w,c
  3183  001A88  1039               	iorwf	(gpio_pin_direction_initialize@pin_config+1)^0,w,c
  3184  001A8A  B4D8               	btfsc	status,2,c
  3185  001A8C  EF4A  F00D         	goto	u7851
  3186  001A90  EF4C  F00D         	goto	u7850
  3187  001A94                     u7851:
  3188  001A94  EFBE  F00D         	goto	l8764
  3189  001A98                     u7850:
  3190  001A98  C038  FFD9         	movff	gpio_pin_direction_initialize@pin_config,fsr2l
  3191  001A9C  C039  FFDA         	movff	gpio_pin_direction_initialize@pin_config+1,fsr2h
  3192  001AA0  30DF               	rrcf	223,w,c
  3193  001AA2  32E8               	rrcf	wreg,f,c
  3194  001AA4  32E8               	rrcf	wreg,f,c
  3195  001AA6  0B07               	andlw	7
  3196  001AA8  6E3A               	movwf	??_gpio_pin_direction_initialize^0,c
  3197  001AAA  0E08               	movlw	8
  3198  001AAC  603A               	cpfslt	??_gpio_pin_direction_initialize^0,c
  3199  001AAE  EF5B  F00D         	goto	u7861
  3200  001AB2  EF5D  F00D         	goto	u7860
  3201  001AB6                     u7861:
  3202  001AB6  EFBE  F00D         	goto	l8764
  3203  001ABA                     u7860:
  3204  001ABA  EFC2  F00D         	goto	l8768
  3205  001ABE                     l8760:
  3206                           
  3207                           ;MCAL_Layer/GPIO/hal_gpio.c: 28:               (*tris_registers[pin_config->port] &= ~((
      +                          (uint8)1) << pin_config->pin));
  3208  001ABE  C038  FFD9         	movff	gpio_pin_direction_initialize@pin_config,fsr2l
  3209  001AC2  C039  FFDA         	movff	gpio_pin_direction_initialize@pin_config+1,fsr2h
  3210  001AC6  30DF               	rrcf	223,w,c
  3211  001AC8  32E8               	rrcf	wreg,f,c
  3212  001ACA  32E8               	rrcf	wreg,f,c
  3213  001ACC  0B07               	andlw	7
  3214  001ACE  6E3A               	movwf	??_gpio_pin_direction_initialize^0,c
  3215  001AD0  0E01               	movlw	1
  3216  001AD2  6E3B               	movwf	(??_gpio_pin_direction_initialize+1)^0,c
  3217  001AD4  2A3A               	incf	??_gpio_pin_direction_initialize^0,f,c
  3218  001AD6  EF6F  F00D         	goto	u7874
  3219  001ADA                     u7875:
  3220  001ADA  90D8               	bcf	status,0,c
  3221  001ADC  363B               	rlcf	(??_gpio_pin_direction_initialize+1)^0,f,c
  3222  001ADE                     u7874:
  3223  001ADE  2E3A               	decfsz	??_gpio_pin_direction_initialize^0,f,c
  3224  001AE0  EF6D  F00D         	goto	u7875
  3225  001AE4  503B               	movf	(??_gpio_pin_direction_initialize+1)^0,w,c
  3226  001AE6  0AFF               	xorlw	255
  3227  001AE8  6E3C               	movwf	(??_gpio_pin_direction_initialize+2)^0,c
  3228  001AEA  C038  FFD9         	movff	gpio_pin_direction_initialize@pin_config,fsr2l
  3229  001AEE  C039  FFDA         	movff	gpio_pin_direction_initialize@pin_config+1,fsr2h
  3230  001AF2  50DF               	movf	223,w,c
  3231  001AF4  0B07               	andlw	7
  3232  001AF6  6E3D               	movwf	(??_gpio_pin_direction_initialize+3)^0,c
  3233  001AF8  503D               	movf	(??_gpio_pin_direction_initialize+3)^0,w,c
  3234  001AFA  0D02               	mullw	2
  3235  001AFC  0E94               	movlw	low _tris_registers
  3236  001AFE  24F3               	addwf	243,w,c
  3237  001B00  6ED9               	movwf	fsr2l,c
  3238  001B02  0E00               	movlw	high _tris_registers
  3239  001B04  20F4               	addwfc	prodh,w,c
  3240  001B06  6EDA               	movwf	fsr2h,c
  3241  001B08  CFDE F03E          	movff	postinc2,??_gpio_pin_direction_initialize+4
  3242  001B0C  CFDD F03F          	movff	postdec2,??_gpio_pin_direction_initialize+5
  3243  001B10  C03E  FFD9         	movff	??_gpio_pin_direction_initialize+4,fsr2l
  3244  001B14  C03F  FFDA         	movff	??_gpio_pin_direction_initialize+5,fsr2h
  3245  001B18  503C               	movf	(??_gpio_pin_direction_initialize+2)^0,w,c
  3246  001B1A  16DF               	andwf	indf2,f,c
  3247                           
  3248                           ;MCAL_Layer/GPIO/hal_gpio.c: 29:                 break;
  3249  001B1C  EFE3  F00D         	goto	l761
  3250  001B20                     l8762:
  3251                           
  3252                           ;MCAL_Layer/GPIO/hal_gpio.c: 31:               (*tris_registers[pin_config->port] |= (((
      +                          uint8)1) << pin_config->pin));
  3253  001B20  C038  FFD9         	movff	gpio_pin_direction_initialize@pin_config,fsr2l
  3254  001B24  C039  FFDA         	movff	gpio_pin_direction_initialize@pin_config+1,fsr2h
  3255  001B28  30DF               	rrcf	223,w,c
  3256  001B2A  32E8               	rrcf	wreg,f,c
  3257  001B2C  32E8               	rrcf	wreg,f,c
  3258  001B2E  0B07               	andlw	7
  3259  001B30  6E3A               	movwf	??_gpio_pin_direction_initialize^0,c
  3260  001B32  0E01               	movlw	1
  3261  001B34  6E3B               	movwf	(??_gpio_pin_direction_initialize+1)^0,c
  3262  001B36  2A3A               	incf	??_gpio_pin_direction_initialize^0,f,c
  3263  001B38  EFA0  F00D         	goto	u7884
  3264  001B3C                     u7885:
  3265  001B3C  90D8               	bcf	status,0,c
  3266  001B3E  363B               	rlcf	(??_gpio_pin_direction_initialize+1)^0,f,c
  3267  001B40                     u7884:
  3268  001B40  2E3A               	decfsz	??_gpio_pin_direction_initialize^0,f,c
  3269  001B42  EF9E  F00D         	goto	u7885
  3270  001B46  C038  FFD9         	movff	gpio_pin_direction_initialize@pin_config,fsr2l
  3271  001B4A  C039  FFDA         	movff	gpio_pin_direction_initialize@pin_config+1,fsr2h
  3272  001B4E  50DF               	movf	223,w,c
  3273  001B50  0B07               	andlw	7
  3274  001B52  6E3C               	movwf	(??_gpio_pin_direction_initialize+2)^0,c
  3275  001B54  503C               	movf	(??_gpio_pin_direction_initialize+2)^0,w,c
  3276  001B56  0D02               	mullw	2
  3277  001B58  0E94               	movlw	low _tris_registers
  3278  001B5A  24F3               	addwf	243,w,c
  3279  001B5C  6ED9               	movwf	fsr2l,c
  3280  001B5E  0E00               	movlw	high _tris_registers
  3281  001B60  20F4               	addwfc	prodh,w,c
  3282  001B62  6EDA               	movwf	fsr2h,c
  3283  001B64  CFDE F03D          	movff	postinc2,??_gpio_pin_direction_initialize+3
  3284  001B68  CFDD F03E          	movff	postdec2,??_gpio_pin_direction_initialize+4
  3285  001B6C  C03D  FFD9         	movff	??_gpio_pin_direction_initialize+3,fsr2l
  3286  001B70  C03E  FFDA         	movff	??_gpio_pin_direction_initialize+4,fsr2h
  3287  001B74  503B               	movf	(??_gpio_pin_direction_initialize+1)^0,w,c
  3288  001B76  12DF               	iorwf	indf2,f,c
  3289                           
  3290                           ;MCAL_Layer/GPIO/hal_gpio.c: 32:                 break;
  3291  001B78  EFE3  F00D         	goto	l761
  3292  001B7C                     l8764:
  3293                           
  3294                           ;MCAL_Layer/GPIO/hal_gpio.c: 34:                 Status = (STD_ReturnType)0x00;
  3295  001B7C  0E00               	movlw	0
  3296  001B7E  6E40               	movwf	gpio_pin_direction_initialize@Status^0,c
  3297                           
  3298                           ;MCAL_Layer/GPIO/hal_gpio.c: 35:                 break;
  3299  001B80  EFE3  F00D         	goto	l761
  3300  001B84                     l8768:
  3301  001B84  C038  FFD9         	movff	gpio_pin_direction_initialize@pin_config,fsr2l
  3302  001B88  C039  FFDA         	movff	gpio_pin_direction_initialize@pin_config+1,fsr2h
  3303  001B8C  BCDF               	btfsc	indf2,6,c
  3304  001B8E  EFCB  F00D         	goto	u7891
  3305  001B92  EFCE  F00D         	goto	u7890
  3306  001B96                     u7891:
  3307  001B96  0E01               	movlw	1
  3308  001B98  EFCF  F00D         	goto	u7900
  3309  001B9C                     u7890:
  3310  001B9C  0E00               	movlw	0
  3311  001B9E                     u7900:
  3312  001B9E  6E3A               	movwf	??_gpio_pin_direction_initialize^0,c
  3313  001BA0  6A3B               	clrf	(??_gpio_pin_direction_initialize+1)^0,c
  3314                           
  3315                           ; Switch on 2 bytes has been partitioned into a top level switch of size 1, and 1 sub-sw
      +                          itches
  3316                           ; Switch size 1, requested type "simple"
  3317                           ; Number of cases is 1, Range of values is 0 to 0
  3318                           ; switch strategies available:
  3319                           ; Name         Instructions Cycles
  3320                           ; simple_byte            4     3 (average)
  3321                           ;	Chosen strategy is simple_byte
  3322  001BA2  503B               	movf	(??_gpio_pin_direction_initialize+1)^0,w,c
  3323  001BA4  0A00               	xorlw	0	; case 0
  3324  001BA6  B4D8               	btfsc	status,2,c
  3325  001BA8  EFD8  F00D         	goto	l10096
  3326  001BAC  EFBE  F00D         	goto	l8764
  3327  001BB0                     l10096:
  3328                           
  3329                           ; Switch size 1, requested type "simple"
  3330                           ; Number of cases is 2, Range of values is 0 to 1
  3331                           ; switch strategies available:
  3332                           ; Name         Instructions Cycles
  3333                           ; simple_byte            7     4 (average)
  3334                           ;	Chosen strategy is simple_byte
  3335  001BB0  503A               	movf	??_gpio_pin_direction_initialize^0,w,c
  3336  001BB2  0A00               	xorlw	0	; case 0
  3337  001BB4  B4D8               	btfsc	status,2,c
  3338  001BB6  EF5F  F00D         	goto	l8760
  3339  001BBA  0A01               	xorlw	1	; case 1
  3340  001BBC  B4D8               	btfsc	status,2,c
  3341  001BBE  EF90  F00D         	goto	l8762
  3342  001BC2  EFBE  F00D         	goto	l8764
  3343  001BC6                     l761:
  3344                           
  3345                           ;MCAL_Layer/GPIO/hal_gpio.c: 41:     return Status;
  3346  001BC6  5040               	movf	gpio_pin_direction_initialize@Status^0,w,c
  3347  001BC8  0012               	return		;funcret
  3348  001BCA                     __end_of_gpio_pin_direction_initialize:
  3349                           	callstack 0
  3350                           
  3351 ;; *************** function _keypad_get_pressed_button *****************
  3352 ;; Defined at:
  3353 ;;		line 49 in file "ECU_Layer/Keypad/ecu_keypad.c"
  3354 ;; Parameters:    Size  Location     Type
  3355 ;;  keypad          2   13[COMRAM] PTR const struct .
  3356 ;;		 -> keypad1(8), 
  3357 ;;  button_press    2   15[COMRAM] PTR unsigned char 
  3358 ;;		 -> sixth_digit(1), fifth_digit(1), fourth_digit(1), third_digit(1), 
  3359 ;;		 -> second_digit(1), first_digit(1), key_pressed(1), 
  3360 ;; Auto vars:     Size  Location     Type
  3361 ;;  column_numbe    1   23[COMRAM] unsigned char 
  3362 ;;  l_counter       1   21[COMRAM] unsigned char 
  3363 ;;  row_number      1   22[COMRAM] unsigned char 
  3364 ;;  logic           1   20[COMRAM] enum E2800
  3365 ;;  Status          1   19[COMRAM] unsigned char 
  3366 ;; Return value:  Size  Location     Type
  3367 ;;                  1    wreg      unsigned char 
  3368 ;; Registers used:
  3369 ;;		wreg, fsr2l, fsr2h, status,2, status,0, tblptrl, tblptrh, tblptru, prodl, prodh, cstack
  3370 ;; Tracked objects:
  3371 ;;		On entry : 0/0
  3372 ;;		On exit  : 0/0
  3373 ;;		Unchanged: 0/0
  3374 ;; Data sizes:     COMRAM   BANK0   BANK1   BANK2   BANK3   BANK4   BANK5   BANK6   BANK7   BANK8   BANK9  BANK10  BANK1
      +1  BANK12  BANK13  BANK14  BANK15
  3375 ;;      Params:         4       0       0       0       0       0       0       0       0       0       0       0       
      +0       0       0       0       0
  3376 ;;      Locals:         5       0       0       0       0       0       0       0       0       0       0       0       
      +0       0       0       0       0
  3377 ;;      Temps:          2       0       0       0       0       0       0       0       0       0       0       0       
      +0       0       0       0       0
  3378 ;;      Totals:        11       0       0       0       0       0       0       0       0       0       0       0       
      +0       0       0       0       0
  3379 ;;Total ram usage:       11 bytes
  3380 ;; Hardware stack levels used: 1
  3381 ;; Hardware stack levels required when called: 4
  3382 ;; This function calls:
  3383 ;;		_gpio_pin_read_logic
  3384 ;;		_gpio_pin_write_logic
  3385 ;; This function is called by:
  3386 ;;		_main
  3387 ;; This function uses a non-reentrant model
  3388 ;;
  3389                           
  3390                           	psect	text10
  3391  001E1A                     __ptext10:
  3392                           	callstack 0
  3393  001E1A                     _keypad_get_pressed_button:
  3394                           	callstack 26
  3395  001E1A                     
  3396                           ;ECU_Layer/Keypad/ecu_keypad.c: 51:     STD_ReturnType Status = (STD_ReturnType)0x00;
  3397  001E1A  0E00               	movlw	0
  3398  001E1C  6E48               	movwf	keypad_get_pressed_button@Status^0,c
  3399                           
  3400                           ;ECU_Layer/Keypad/ecu_keypad.c: 52:     Logic_t logic = ((uint8)0x00);
  3401  001E1E  0E00               	movlw	0
  3402  001E20  6E49               	movwf	keypad_get_pressed_button@logic^0,c
  3403  001E22                     
  3404                           ;ECU_Layer/Keypad/ecu_keypad.c: 54:     if(keypad != ((void*)0) && button_pressed != ((v
      +                          oid*)0)){
  3405  001E22  5042               	movf	keypad_get_pressed_button@keypad^0,w,c
  3406  001E24  1043               	iorwf	(keypad_get_pressed_button@keypad+1)^0,w,c
  3407  001E26  B4D8               	btfsc	status,2,c
  3408  001E28  EF18  F00F         	goto	u8471
  3409  001E2C  EF1A  F00F         	goto	u8470
  3410  001E30                     u8471:
  3411  001E30  EF92  F00F         	goto	l9344
  3412  001E34                     u8470:
  3413  001E34  5044               	movf	keypad_get_pressed_button@button_pressed^0,w,c
  3414  001E36  1045               	iorwf	(keypad_get_pressed_button@button_pressed+1)^0,w,c
  3415  001E38  B4D8               	btfsc	status,2,c
  3416  001E3A  EF21  F00F         	goto	u8481
  3417  001E3E  EF23  F00F         	goto	u8480
  3418  001E42                     u8481:
  3419  001E42  EF92  F00F         	goto	l9344
  3420  001E46                     u8480:
  3421  001E46                     
  3422                           ;ECU_Layer/Keypad/ecu_keypad.c: 55:         for(uint8 row_number = 0x00 ; row_number < (
      +                          (uint8)4) ; row_number++){
  3423  001E46  0E00               	movlw	0
  3424  001E48  6E4B               	movwf	keypad_get_pressed_button@row_number^0,c
  3425  001E4A                     l9306:
  3426                           
  3427                           ;ECU_Layer/Keypad/ecu_keypad.c: 56:             for(uint8 l_counter = 0x00; l_counter < 
      +                          ((uint8)4) ; l_counter++){
  3428  001E4A  0E00               	movlw	0
  3429  001E4C  6E4A               	movwf	keypad_get_pressed_button@l_counter^0,c
  3430  001E4E                     l9312:
  3431                           
  3432                           ;ECU_Layer/Keypad/ecu_keypad.c: 57:                 gpio_pin_write_logic(&(keypad->keypa
      +                          d_rows[l_counter]),LOW);
  3433  001E4E  504A               	movf	keypad_get_pressed_button@l_counter^0,w,c
  3434  001E50  2442               	addwf	keypad_get_pressed_button@keypad^0,w,c
  3435  001E52  6E38               	movwf	gpio_pin_write_logic@pin_config^0,c
  3436  001E54  0E00               	movlw	0
  3437  001E56  2043               	addwfc	(keypad_get_pressed_button@keypad+1)^0,w,c
  3438  001E58  6E39               	movwf	(gpio_pin_write_logic@pin_config+1)^0,c
  3439  001E5A  0E00               	movlw	0
  3440  001E5C  6E3A               	movwf	gpio_pin_write_logic@logic^0,c
  3441  001E5E  ECE5  F00D         	call	_gpio_pin_write_logic	;wreg free
  3442  001E62                     
  3443                           ;ECU_Layer/Keypad/ecu_keypad.c: 58:             }
  3444  001E62  2A4A               	incf	keypad_get_pressed_button@l_counter^0,f,c
  3445  001E64  0E03               	movlw	3
  3446  001E66  644A               	cpfsgt	keypad_get_pressed_button@l_counter^0,c
  3447  001E68  EF38  F00F         	goto	u8491
  3448  001E6C  EF3A  F00F         	goto	u8490
  3449  001E70                     u8491:
  3450  001E70  EF27  F00F         	goto	l9312
  3451  001E74                     u8490:
  3452  001E74                     
  3453                           ;ECU_Layer/Keypad/ecu_keypad.c: 59:             gpio_pin_write_logic(&(keypad->keypad_ro
      +                          ws[row_number]),HIGH);
  3454  001E74  504B               	movf	keypad_get_pressed_button@row_number^0,w,c
  3455  001E76  2442               	addwf	keypad_get_pressed_button@keypad^0,w,c
  3456  001E78  6E38               	movwf	gpio_pin_write_logic@pin_config^0,c
  3457  001E7A  0E00               	movlw	0
  3458  001E7C  2043               	addwfc	(keypad_get_pressed_button@keypad+1)^0,w,c
  3459  001E7E  6E39               	movwf	(gpio_pin_write_logic@pin_config+1)^0,c
  3460  001E80  0E01               	movlw	1
  3461  001E82  6E3A               	movwf	gpio_pin_write_logic@logic^0,c
  3462  001E84  ECE5  F00D         	call	_gpio_pin_write_logic	;wreg free
  3463  001E88                     
  3464                           ;ECU_Layer/Keypad/ecu_keypad.c: 61:             for(uint8 column_number = 0x00 ; column_
      +                          number < ((uint8)4) ; column_number++){
  3465  001E88  0E00               	movlw	0
  3466  001E8A  6E4C               	movwf	keypad_get_pressed_button@column_number^0,c
  3467  001E8C                     l9326:
  3468                           
  3469                           ;ECU_Layer/Keypad/ecu_keypad.c: 62:                 gpio_pin_read_logic(&(keypad->keypad
      +                          _columns[column_number]),&logic);
  3470  001E8C  504C               	movf	keypad_get_pressed_button@column_number^0,w,c
  3471  001E8E  2442               	addwf	keypad_get_pressed_button@keypad^0,w,c
  3472  001E90  6E46               	movwf	??_keypad_get_pressed_button^0,c
  3473  001E92  0E00               	movlw	0
  3474  001E94  2043               	addwfc	(keypad_get_pressed_button@keypad+1)^0,w,c
  3475  001E96  6E47               	movwf	(??_keypad_get_pressed_button+1)^0,c
  3476  001E98  0E04               	movlw	4
  3477  001E9A  2446               	addwf	??_keypad_get_pressed_button^0,w,c
  3478  001E9C  6E38               	movwf	gpio_pin_read_logic@pin_config^0,c
  3479  001E9E  0E00               	movlw	0
  3480  001EA0  2047               	addwfc	(??_keypad_get_pressed_button+1)^0,w,c
  3481  001EA2  6E39               	movwf	(gpio_pin_read_logic@pin_config+1)^0,c
  3482  001EA4  0E49               	movlw	low keypad_get_pressed_button@logic
  3483  001EA6  6E3A               	movwf	gpio_pin_read_logic@logic^0,c
  3484  001EA8  0E00               	movlw	high keypad_get_pressed_button@logic
  3485  001EAA  6E3B               	movwf	(gpio_pin_read_logic@logic+1)^0,c
  3486  001EAC  EC45  F012         	call	_gpio_pin_read_logic	;wreg free
  3487  001EB0                     
  3488                           ;ECU_Layer/Keypad/ecu_keypad.c: 63:                 if(logic == ((uint8)0x01)){
  3489  001EB0  0449               	decf	keypad_get_pressed_button@logic^0,w,c
  3490  001EB2  A4D8               	btfss	status,2,c
  3491  001EB4  EF5E  F00F         	goto	u8501
  3492  001EB8  EF60  F00F         	goto	u8500
  3493  001EBC                     u8501:
  3494  001EBC  EF7E  F00F         	goto	l9336
  3495  001EC0                     u8500:
  3496  001EC0                     
  3497                           ;ECU_Layer/Keypad/ecu_keypad.c: 64:                     *button_pressed = keypad_btns[ro
      +                          w_number][column_number];
  3498  001EC0  504B               	movf	keypad_get_pressed_button@row_number^0,w,c
  3499  001EC2  0D04               	mullw	4
  3500  001EC4  0E01               	movlw	low _keypad_btns
  3501  001EC6  6E46               	movwf	??_keypad_get_pressed_button^0,c
  3502  001EC8  0E10               	movlw	high _keypad_btns
  3503  001ECA  6E47               	movwf	(??_keypad_get_pressed_button+1)^0,c
  3504  001ECC  50F3               	movf	243,w,c
  3505  001ECE  2646               	addwf	??_keypad_get_pressed_button^0,f,c
  3506  001ED0  50F4               	movf	244,w,c
  3507  001ED2  2247               	addwfc	(??_keypad_get_pressed_button+1)^0,f,c
  3508  001ED4  504C               	movf	keypad_get_pressed_button@column_number^0,w,c
  3509  001ED6  2646               	addwf	??_keypad_get_pressed_button^0,f,c
  3510  001ED8  0E00               	movlw	0
  3511  001EDA  2247               	addwfc	(??_keypad_get_pressed_button+1)^0,f,c
  3512  001EDC  C046  FFF6         	movff	??_keypad_get_pressed_button,tblptrl
  3513  001EE0  C047  FFF7         	movff	??_keypad_get_pressed_button+1,tblptrh
  3514  001EE4                     	if	1	;Program memory is < 0x10000, tblptru is always zero
  3515  001EE4  6AF8               	clrf	tblptru,c
  3516  001EE6                     	endif
  3517  001EE6                     	if	0	;tblptru may be non-zero
  3518  001EE6                     	endif
  3519  001EE6  C044  FFD9         	movff	keypad_get_pressed_button@button_pressed,fsr2l
  3520  001EEA  C045  FFDA         	movff	keypad_get_pressed_button@button_pressed+1,fsr2h
  3521  001EEE  0008               	tblrd		*
  3522  001EF0  CFF5 FFDF          	movff	tablat,indf2
  3523  001EF4                     
  3524                           ;ECU_Layer/Keypad/ecu_keypad.c: 65:                     Status = (STD_ReturnType)0x01;
  3525  001EF4  0E01               	movlw	1
  3526  001EF6  6E48               	movwf	keypad_get_pressed_button@Status^0,c
  3527  001EF8                     
  3528                           ;ECU_Layer/Keypad/ecu_keypad.c: 66:                     logic = ((uint8)0x00);
  3529  001EF8  0E00               	movlw	0
  3530  001EFA  6E49               	movwf	keypad_get_pressed_button@logic^0,c
  3531  001EFC                     l9336:
  3532                           
  3533                           ;ECU_Layer/Keypad/ecu_keypad.c: 68:             }
  3534  001EFC  2A4C               	incf	keypad_get_pressed_button@column_number^0,f,c
  3535  001EFE  0E03               	movlw	3
  3536  001F00  644C               	cpfsgt	keypad_get_pressed_button@column_number^0,c
  3537  001F02  EF85  F00F         	goto	u8511
  3538  001F06  EF87  F00F         	goto	u8510
  3539  001F0A                     u8511:
  3540  001F0A  EF46  F00F         	goto	l9326
  3541  001F0E                     u8510:
  3542  001F0E                     
  3543                           ;ECU_Layer/Keypad/ecu_keypad.c: 70:         }
  3544  001F0E  2A4B               	incf	keypad_get_pressed_button@row_number^0,f,c
  3545  001F10  0E03               	movlw	3
  3546  001F12  644B               	cpfsgt	keypad_get_pressed_button@row_number^0,c
  3547  001F14  EF8E  F00F         	goto	u8521
  3548  001F18  EF90  F00F         	goto	u8520
  3549  001F1C                     u8521:
  3550  001F1C  EF25  F00F         	goto	l9306
  3551  001F20                     u8520:
  3552  001F20  EF94  F00F         	goto	l242
  3553  001F24                     l9344:
  3554                           
  3555                           ;ECU_Layer/Keypad/ecu_keypad.c: 74:         Status = (STD_ReturnType)0x00;
  3556  001F24  0E00               	movlw	0
  3557  001F26  6E48               	movwf	keypad_get_pressed_button@Status^0,c
  3558  001F28                     l242:
  3559                           
  3560                           ;ECU_Layer/Keypad/ecu_keypad.c: 78:     return Status;
  3561  001F28  5048               	movf	keypad_get_pressed_button@Status^0,w,c
  3562  001F2A  0012               	return		;funcret
  3563  001F2C                     __end_of_keypad_get_pressed_button:
  3564                           	callstack 0
  3565                           
  3566 ;; *************** function _gpio_pin_write_logic *****************
  3567 ;; Defined at:
  3568 ;;		line 74 in file "MCAL_Layer/GPIO/hal_gpio.c"
  3569 ;; Parameters:    Size  Location     Type
  3570 ;;  pin_config      2    3[COMRAM] PTR const struct .
  3571 ;;		 -> rd5(1), rd4(1), rd3(1), rd2(1), 
  3572 ;;		 -> rd1(1), rd0(1), rc6(1), rc5(1), 
  3573 ;;		 -> rc4(1), rc3(1), rc2(1), rc1(1), 
  3574 ;;		 -> rc0(1), lcd_8.lcd_data(8), lcd_8(10), keypad1.keypad_rows(4), 
  3575 ;;		 -> keypad1(8), lcd_2.lcd_data(8), lcd_2(10), lcd_1.lcd_data(4), 
  3576 ;;		 -> lcd_1(6), relay_Off@relay_pin(1), relay_On@relay_pin(1), relay_initialize@relay_pin(1), 
  3577 ;;		 -> led_turn_off@pin_obj(1), led_turn_on@pin_obj(1), led_initialize@pin_obj(1), 
  3578 ;;  logic           1    5[COMRAM] enum E2800
  3579 ;; Auto vars:     Size  Location     Type
  3580 ;;  Status          1   12[COMRAM] unsigned char 
  3581 ;; Return value:  Size  Location     Type
  3582 ;;                  1    wreg      unsigned char 
  3583 ;; Registers used:
  3584 ;;		wreg, fsr2l, fsr2h, status,2, status,0, prodl, prodh
  3585 ;; Tracked objects:
  3586 ;;		On entry : 0/0
  3587 ;;		On exit  : 0/0
  3588 ;;		Unchanged: 0/0
  3589 ;; Data sizes:     COMRAM   BANK0   BANK1   BANK2   BANK3   BANK4   BANK5   BANK6   BANK7   BANK8   BANK9  BANK10  BANK1
      +1  BANK12  BANK13  BANK14  BANK15
  3590 ;;      Params:         3       0       0       0       0       0       0       0       0       0       0       0       
      +0       0       0       0       0
  3591 ;;      Locals:         1       0       0       0       0       0       0       0       0       0       0       0       
      +0       0       0       0       0
  3592 ;;      Temps:          6       0       0       0       0       0       0       0       0       0       0       0       
      +0       0       0       0       0
  3593 ;;      Totals:        10       0       0       0       0       0       0       0       0       0       0       0       
      +0       0       0       0       0
  3594 ;;Total ram usage:       10 bytes
  3595 ;; Hardware stack levels used: 1
  3596 ;; Hardware stack levels required when called: 3
  3597 ;; This function calls:
  3598 ;;		Nothing
  3599 ;; This function is called by:
  3600 ;;		_lcd_8bit_send_command
  3601 ;;		_lcd_8bit_send_char_data
  3602 ;;		_keypad_get_pressed_button
  3603 ;;		_gpio_pin_initialize
  3604 ;;		_main
  3605 ;;		_Seven_Sement_Write_Number
  3606 ;;		_lcd_4bit_send_command
  3607 ;;		_lcd_4bit_send_char_data
  3608 ;;		_dc_motor_forward
  3609 ;;		_dc_motor_reverse
  3610 ;;		_dc_motor_stop
  3611 ;;		_led_turn_on
  3612 ;;		_led_turn_off
  3613 ;;		_relay_On
  3614 ;;		_relay_Off
  3615 ;; This function uses a non-reentrant model
  3616 ;;
  3617                           
  3618                           	psect	text11
  3619  001BCA                     __ptext11:
  3620                           	callstack 0
  3621  001BCA                     _gpio_pin_write_logic:
  3622                           	callstack 24
  3623  001BCA                     
  3624                           ;MCAL_Layer/GPIO/hal_gpio.c: 75:     STD_ReturnType Status = (STD_ReturnType)0x01;
  3625  001BCA  0E01               	movlw	1
  3626  001BCC  6E41               	movwf	gpio_pin_write_logic@Status^0,c
  3627  001BCE                     
  3628                           ;MCAL_Layer/GPIO/hal_gpio.c: 76:     if(pin_config != ((void*)0) && pin_config->pin < ((
      +                          uint8)8)){
  3629  001BCE  5038               	movf	gpio_pin_write_logic@pin_config^0,w,c
  3630  001BD0  1039               	iorwf	(gpio_pin_write_logic@pin_config+1)^0,w,c
  3631  001BD2  B4D8               	btfsc	status,2,c
  3632  001BD4  EFEE  F00D         	goto	u7811
  3633  001BD8  EFF0  F00D         	goto	u7810
  3634  001BDC                     u7811:
  3635  001BDC  EF62  F00E         	goto	l8738
  3636  001BE0                     u7810:
  3637  001BE0  C038  FFD9         	movff	gpio_pin_write_logic@pin_config,fsr2l
  3638  001BE4  C039  FFDA         	movff	gpio_pin_write_logic@pin_config+1,fsr2h
  3639  001BE8  30DF               	rrcf	223,w,c
  3640  001BEA  32E8               	rrcf	wreg,f,c
  3641  001BEC  32E8               	rrcf	wreg,f,c
  3642  001BEE  0B07               	andlw	7
  3643  001BF0  6E3B               	movwf	??_gpio_pin_write_logic^0,c
  3644  001BF2  0E08               	movlw	8
  3645  001BF4  603B               	cpfslt	??_gpio_pin_write_logic^0,c
  3646  001BF6  EFFF  F00D         	goto	u7821
  3647  001BFA  EF01  F00E         	goto	u7820
  3648  001BFE                     u7821:
  3649  001BFE  EF62  F00E         	goto	l8738
  3650  001C02                     u7820:
  3651  001C02  EF66  F00E         	goto	l8742
  3652  001C06                     l8734:
  3653                           
  3654                           ;MCAL_Layer/GPIO/hal_gpio.c: 79:                 (*lat_registers[pin_config->port] |= ((
      +                          (uint8)1) << pin_config->pin));
  3655  001C06  C038  FFD9         	movff	gpio_pin_write_logic@pin_config,fsr2l
  3656  001C0A  C039  FFDA         	movff	gpio_pin_write_logic@pin_config+1,fsr2h
  3657  001C0E  30DF               	rrcf	223,w,c
  3658  001C10  32E8               	rrcf	wreg,f,c
  3659  001C12  32E8               	rrcf	wreg,f,c
  3660  001C14  0B07               	andlw	7
  3661  001C16  6E3B               	movwf	??_gpio_pin_write_logic^0,c
  3662  001C18  0E01               	movlw	1
  3663  001C1A  6E3C               	movwf	(??_gpio_pin_write_logic+1)^0,c
  3664  001C1C  2A3B               	incf	??_gpio_pin_write_logic^0,f,c
  3665  001C1E  EF13  F00E         	goto	u7834
  3666  001C22                     u7835:
  3667  001C22  90D8               	bcf	status,0,c
  3668  001C24  363C               	rlcf	(??_gpio_pin_write_logic+1)^0,f,c
  3669  001C26                     u7834:
  3670  001C26  2E3B               	decfsz	??_gpio_pin_write_logic^0,f,c
  3671  001C28  EF11  F00E         	goto	u7835
  3672  001C2C  C038  FFD9         	movff	gpio_pin_write_logic@pin_config,fsr2l
  3673  001C30  C039  FFDA         	movff	gpio_pin_write_logic@pin_config+1,fsr2h
  3674  001C34  50DF               	movf	223,w,c
  3675  001C36  0B07               	andlw	7
  3676  001C38  6E3D               	movwf	(??_gpio_pin_write_logic+2)^0,c
  3677  001C3A  503D               	movf	(??_gpio_pin_write_logic+2)^0,w,c
  3678  001C3C  0D02               	mullw	2
  3679  001C3E  0E8A               	movlw	low _lat_registers
  3680  001C40  24F3               	addwf	243,w,c
  3681  001C42  6ED9               	movwf	fsr2l,c
  3682  001C44  0E00               	movlw	high _lat_registers
  3683  001C46  20F4               	addwfc	prodh,w,c
  3684  001C48  6EDA               	movwf	fsr2h,c
  3685  001C4A  CFDE F03E          	movff	postinc2,??_gpio_pin_write_logic+3
  3686  001C4E  CFDD F03F          	movff	postdec2,??_gpio_pin_write_logic+4
  3687  001C52  C03E  FFD9         	movff	??_gpio_pin_write_logic+3,fsr2l
  3688  001C56  C03F  FFDA         	movff	??_gpio_pin_write_logic+4,fsr2h
  3689  001C5A  503C               	movf	(??_gpio_pin_write_logic+1)^0,w,c
  3690  001C5C  12DF               	iorwf	indf2,f,c
  3691                           
  3692                           ;MCAL_Layer/GPIO/hal_gpio.c: 80:                 break;
  3693  001C5E  EF7B  F00E         	goto	l776
  3694  001C62                     l8736:
  3695                           
  3696                           ;MCAL_Layer/GPIO/hal_gpio.c: 82:                 (*lat_registers[pin_config->port] &= ~(
      +                          ((uint8)1) << pin_config->pin));
  3697  001C62  C038  FFD9         	movff	gpio_pin_write_logic@pin_config,fsr2l
  3698  001C66  C039  FFDA         	movff	gpio_pin_write_logic@pin_config+1,fsr2h
  3699  001C6A  30DF               	rrcf	223,w,c
  3700  001C6C  32E8               	rrcf	wreg,f,c
  3701  001C6E  32E8               	rrcf	wreg,f,c
  3702  001C70  0B07               	andlw	7
  3703  001C72  6E3B               	movwf	??_gpio_pin_write_logic^0,c
  3704  001C74  0E01               	movlw	1
  3705  001C76  6E3C               	movwf	(??_gpio_pin_write_logic+1)^0,c
  3706  001C78  2A3B               	incf	??_gpio_pin_write_logic^0,f,c
  3707  001C7A  EF41  F00E         	goto	u7844
  3708  001C7E                     u7845:
  3709  001C7E  90D8               	bcf	status,0,c
  3710  001C80  363C               	rlcf	(??_gpio_pin_write_logic+1)^0,f,c
  3711  001C82                     u7844:
  3712  001C82  2E3B               	decfsz	??_gpio_pin_write_logic^0,f,c
  3713  001C84  EF3F  F00E         	goto	u7845
  3714  001C88  503C               	movf	(??_gpio_pin_write_logic+1)^0,w,c
  3715  001C8A  0AFF               	xorlw	255
  3716  001C8C  6E3D               	movwf	(??_gpio_pin_write_logic+2)^0,c
  3717  001C8E  C038  FFD9         	movff	gpio_pin_write_logic@pin_config,fsr2l
  3718  001C92  C039  FFDA         	movff	gpio_pin_write_logic@pin_config+1,fsr2h
  3719  001C96  50DF               	movf	223,w,c
  3720  001C98  0B07               	andlw	7
  3721  001C9A  6E3E               	movwf	(??_gpio_pin_write_logic+3)^0,c
  3722  001C9C  503E               	movf	(??_gpio_pin_write_logic+3)^0,w,c
  3723  001C9E  0D02               	mullw	2
  3724  001CA0  0E8A               	movlw	low _lat_registers
  3725  001CA2  24F3               	addwf	243,w,c
  3726  001CA4  6ED9               	movwf	fsr2l,c
  3727  001CA6  0E00               	movlw	high _lat_registers
  3728  001CA8  20F4               	addwfc	prodh,w,c
  3729  001CAA  6EDA               	movwf	fsr2h,c
  3730  001CAC  CFDE F03F          	movff	postinc2,??_gpio_pin_write_logic+4
  3731  001CB0  CFDD F040          	movff	postdec2,??_gpio_pin_write_logic+5
  3732  001CB4  C03F  FFD9         	movff	??_gpio_pin_write_logic+4,fsr2l
  3733  001CB8  C040  FFDA         	movff	??_gpio_pin_write_logic+5,fsr2h
  3734  001CBC  503D               	movf	(??_gpio_pin_write_logic+2)^0,w,c
  3735  001CBE  16DF               	andwf	indf2,f,c
  3736                           
  3737                           ;MCAL_Layer/GPIO/hal_gpio.c: 83:                 break;
  3738  001CC0  EF7B  F00E         	goto	l776
  3739  001CC4                     l8738:
  3740                           
  3741                           ;MCAL_Layer/GPIO/hal_gpio.c: 85:                 Status = (STD_ReturnType)0x00;
  3742  001CC4  0E00               	movlw	0
  3743  001CC6  6E41               	movwf	gpio_pin_write_logic@Status^0,c
  3744                           
  3745                           ;MCAL_Layer/GPIO/hal_gpio.c: 86:                 break;
  3746  001CC8  EF7B  F00E         	goto	l776
  3747  001CCC                     l8742:
  3748  001CCC  503A               	movf	gpio_pin_write_logic@logic^0,w,c
  3749  001CCE  6E3B               	movwf	??_gpio_pin_write_logic^0,c
  3750  001CD0  6A3C               	clrf	(??_gpio_pin_write_logic+1)^0,c
  3751                           
  3752                           ; Switch on 2 bytes has been partitioned into a top level switch of size 1, and 1 sub-sw
      +                          itches
  3753                           ; Switch size 1, requested type "simple"
  3754                           ; Number of cases is 1, Range of values is 0 to 0
  3755                           ; switch strategies available:
  3756                           ; Name         Instructions Cycles
  3757                           ; simple_byte            4     3 (average)
  3758                           ;	Chosen strategy is simple_byte
  3759  001CD2  503C               	movf	(??_gpio_pin_write_logic+1)^0,w,c
  3760  001CD4  0A00               	xorlw	0	; case 0
  3761  001CD6  B4D8               	btfsc	status,2,c
  3762  001CD8  EF70  F00E         	goto	l10098
  3763  001CDC  EF62  F00E         	goto	l8738
  3764  001CE0                     l10098:
  3765                           
  3766                           ; Switch size 1, requested type "simple"
  3767                           ; Number of cases is 2, Range of values is 0 to 1
  3768                           ; switch strategies available:
  3769                           ; Name         Instructions Cycles
  3770                           ; simple_byte            7     4 (average)
  3771                           ;	Chosen strategy is simple_byte
  3772  001CE0  503B               	movf	??_gpio_pin_write_logic^0,w,c
  3773  001CE2  0A00               	xorlw	0	; case 0
  3774  001CE4  B4D8               	btfsc	status,2,c
  3775  001CE6  EF31  F00E         	goto	l8736
  3776  001CEA  0A01               	xorlw	1	; case 1
  3777  001CEC  B4D8               	btfsc	status,2,c
  3778  001CEE  EF03  F00E         	goto	l8734
  3779  001CF2  EF62  F00E         	goto	l8738
  3780  001CF6                     l776:
  3781                           
  3782                           ;MCAL_Layer/GPIO/hal_gpio.c: 92:     return Status;
  3783  001CF6  5041               	movf	gpio_pin_write_logic@Status^0,w,c
  3784  001CF8  0012               	return		;funcret
  3785  001CFA                     __end_of_gpio_pin_write_logic:
  3786                           	callstack 0
  3787                           
  3788 ;; *************** function _gpio_pin_read_logic *****************
  3789 ;; Defined at:
  3790 ;;		line 105 in file "MCAL_Layer/GPIO/hal_gpio.c"
  3791 ;; Parameters:    Size  Location     Type
  3792 ;;  pin_config      2    3[COMRAM] PTR const struct .
  3793 ;;		 -> keypad1.keypad_columns(4), keypad1(8), 
  3794 ;;  logic           2    5[COMRAM] PTR enum E2800
  3795 ;;		 -> keypad_get_pressed_button@logic(1), button_read_state@pin_logic_status(1), 
  3796 ;; Auto vars:     Size  Location     Type
  3797 ;;  Status          1    0        unsigned char 
  3798 ;; Return value:  Size  Location     Type
  3799 ;;                  1    wreg      unsigned char 
  3800 ;; Registers used:
  3801 ;;		wreg, fsr2l, fsr2h, status,2, status,0, prodl, prodh
  3802 ;; Tracked objects:
  3803 ;;		On entry : 0/0
  3804 ;;		On exit  : 0/0
  3805 ;;		Unchanged: 0/0
  3806 ;; Data sizes:     COMRAM   BANK0   BANK1   BANK2   BANK3   BANK4   BANK5   BANK6   BANK7   BANK8   BANK9  BANK10  BANK1
      +1  BANK12  BANK13  BANK14  BANK15
  3807 ;;      Params:         4       0       0       0       0       0       0       0       0       0       0       0       
      +0       0       0       0       0
  3808 ;;      Locals:         0       0       0       0       0       0       0       0       0       0       0       0       
      +0       0       0       0       0
  3809 ;;      Temps:          5       0       0       0       0       0       0       0       0       0       0       0       
      +0       0       0       0       0
  3810 ;;      Totals:         9       0       0       0       0       0       0       0       0       0       0       0       
      +0       0       0       0       0
  3811 ;;Total ram usage:        9 bytes
  3812 ;; Hardware stack levels used: 1
  3813 ;; Hardware stack levels required when called: 3
  3814 ;; This function calls:
  3815 ;;		Nothing
  3816 ;; This function is called by:
  3817 ;;		_keypad_get_pressed_button
  3818 ;;		_button_read_state
  3819 ;; This function uses a non-reentrant model
  3820 ;;
  3821                           
  3822                           	psect	text12
  3823  00248A                     __ptext12:
  3824                           	callstack 0
  3825  00248A                     _gpio_pin_read_logic:
  3826                           	callstack 26
  3827  00248A                     
  3828                           ;MCAL_Layer/GPIO/hal_gpio.c: 107:     if(pin_config != ((void*)0) && logic != ((void*)0)
      +                           && pin_config->pin < ((uint8)8)){
  3829  00248A  5038               	movf	gpio_pin_read_logic@pin_config^0,w,c
  3830  00248C  1039               	iorwf	(gpio_pin_read_logic@pin_config+1)^0,w,c
  3831  00248E  B4D8               	btfsc	status,2,c
  3832  002490  EF4C  F012         	goto	u8021
  3833  002494  EF4E  F012         	goto	u8020
  3834  002498                     u8021:
  3835  002498  EF9B  F012         	goto	l8874
  3836  00249C                     u8020:
  3837  00249C  503A               	movf	gpio_pin_read_logic@logic^0,w,c
  3838  00249E  103B               	iorwf	(gpio_pin_read_logic@logic+1)^0,w,c
  3839  0024A0  B4D8               	btfsc	status,2,c
  3840  0024A2  EF55  F012         	goto	u8031
  3841  0024A6  EF57  F012         	goto	u8030
  3842  0024AA                     u8031:
  3843  0024AA  EF9B  F012         	goto	l8874
  3844  0024AE                     u8030:
  3845  0024AE  C038  FFD9         	movff	gpio_pin_read_logic@pin_config,fsr2l
  3846  0024B2  C039  FFDA         	movff	gpio_pin_read_logic@pin_config+1,fsr2h
  3847  0024B6  30DF               	rrcf	223,w,c
  3848  0024B8  32E8               	rrcf	wreg,f,c
  3849  0024BA  32E8               	rrcf	wreg,f,c
  3850  0024BC  0B07               	andlw	7
  3851  0024BE  6E3C               	movwf	??_gpio_pin_read_logic^0,c
  3852  0024C0  0E08               	movlw	8
  3853  0024C2  603C               	cpfslt	??_gpio_pin_read_logic^0,c
  3854  0024C4  EF66  F012         	goto	u8041
  3855  0024C8  EF68  F012         	goto	u8040
  3856  0024CC                     u8041:
  3857  0024CC  EF9B  F012         	goto	l8874
  3858  0024D0                     u8040:
  3859  0024D0                     
  3860                           ;MCAL_Layer/GPIO/hal_gpio.c: 108:            *logic = ((*port_registers[pin_config->port
      +                          ] >> pin_config->pin) & ((uint8)1));
  3861  0024D0  C038  FFD9         	movff	gpio_pin_read_logic@pin_config,fsr2l
  3862  0024D4  C039  FFDA         	movff	gpio_pin_read_logic@pin_config+1,fsr2h
  3863  0024D8  30DF               	rrcf	223,w,c
  3864  0024DA  32E8               	rrcf	wreg,f,c
  3865  0024DC  32E8               	rrcf	wreg,f,c
  3866  0024DE  0B07               	andlw	7
  3867  0024E0  6E3C               	movwf	??_gpio_pin_read_logic^0,c
  3868  0024E2  C038  FFD9         	movff	gpio_pin_read_logic@pin_config,fsr2l
  3869  0024E6  C039  FFDA         	movff	gpio_pin_read_logic@pin_config+1,fsr2h
  3870  0024EA  50DF               	movf	223,w,c
  3871  0024EC  0B07               	andlw	7
  3872  0024EE  6E3D               	movwf	(??_gpio_pin_read_logic+1)^0,c
  3873  0024F0  503D               	movf	(??_gpio_pin_read_logic+1)^0,w,c
  3874  0024F2  0D02               	mullw	2
  3875  0024F4  0E80               	movlw	low _port_registers
  3876  0024F6  24F3               	addwf	243,w,c
  3877  0024F8  6ED9               	movwf	fsr2l,c
  3878  0024FA  0E00               	movlw	high _port_registers
  3879  0024FC  20F4               	addwfc	prodh,w,c
  3880  0024FE  6EDA               	movwf	fsr2h,c
  3881  002500  CFDE F03E          	movff	postinc2,??_gpio_pin_read_logic+2
  3882  002504  CFDD F03F          	movff	postdec2,??_gpio_pin_read_logic+3
  3883  002508  C03E  FFD9         	movff	??_gpio_pin_read_logic+2,fsr2l
  3884  00250C  C03F  FFDA         	movff	??_gpio_pin_read_logic+3,fsr2h
  3885  002510  50DF               	movf	indf2,w,c
  3886  002512  6E40               	movwf	(??_gpio_pin_read_logic+4)^0,c
  3887  002514  2A3C               	incf	??_gpio_pin_read_logic^0,f,c
  3888  002516  EF8F  F012         	goto	u8054
  3889  00251A                     u8055:
  3890  00251A  90D8               	bcf	status,0,c
  3891  00251C  3240               	rrcf	(??_gpio_pin_read_logic+4)^0,f,c
  3892  00251E                     u8054:
  3893  00251E  2E3C               	decfsz	??_gpio_pin_read_logic^0,f,c
  3894  002520  EF8D  F012         	goto	u8055
  3895  002524  5040               	movf	(??_gpio_pin_read_logic+4)^0,w,c
  3896  002526  0B01               	andlw	1
  3897  002528  C03A  FFD9         	movff	gpio_pin_read_logic@logic,fsr2l
  3898  00252C  C03B  FFDA         	movff	gpio_pin_read_logic@logic+1,fsr2h
  3899  002530  6EDF               	movwf	indf2,c
  3900                           
  3901                           ;MCAL_Layer/GPIO/hal_gpio.c: 109:     }
  3902  002532  EF9B  F012         	goto	l782
  3903  002536                     l8874:
  3904  002536                     l782:
  3905  002536  0012               	return		;funcret
  3906  002538                     __end_of_gpio_pin_read_logic:
  3907                           	callstack 0
  3908                           
  3909 ;; *************** function _hal_timer0_interrupt_disable *****************
  3910 ;; Defined at:
  3911 ;;		line 341 in file "MCAL_Layer/Timer0/hal_timer0.c"
  3912 ;; Parameters:    Size  Location     Type
  3913 ;;  timer0          2    3[COMRAM] PTR const struct .
  3914 ;;		 -> tmr0(10), 
  3915 ;; Auto vars:     Size  Location     Type
  3916 ;;  status          1    0        unsigned char 
  3917 ;; Return value:  Size  Location     Type
  3918 ;;                  1    wreg      unsigned char 
  3919 ;; Registers used:
  3920 ;;		wreg, status,2, status,0
  3921 ;; Tracked objects:
  3922 ;;		On entry : 0/0
  3923 ;;		On exit  : 0/0
  3924 ;;		Unchanged: 0/0
  3925 ;; Data sizes:     COMRAM   BANK0   BANK1   BANK2   BANK3   BANK4   BANK5   BANK6   BANK7   BANK8   BANK9  BANK10  BANK1
      +1  BANK12  BANK13  BANK14  BANK15
  3926 ;;      Params:         2       0       0       0       0       0       0       0       0       0       0       0       
      +0       0       0       0       0
  3927 ;;      Locals:         0       0       0       0       0       0       0       0       0       0       0       0       
      +0       0       0       0       0
  3928 ;;      Temps:          0       0       0       0       0       0       0       0       0       0       0       0       
      +0       0       0       0       0
  3929 ;;      Totals:         2       0       0       0       0       0       0       0       0       0       0       0       
      +0       0       0       0       0
  3930 ;;Total ram usage:        2 bytes
  3931 ;; Hardware stack levels used: 1
  3932 ;; Hardware stack levels required when called: 3
  3933 ;; This function calls:
  3934 ;;		Nothing
  3935 ;; This function is called by:
  3936 ;;		_main
  3937 ;;		_hal_timer0_deinitialize
  3938 ;; This function uses a non-reentrant model
  3939 ;;
  3940                           
  3941                           	psect	text13
  3942  002A64                     __ptext13:
  3943                           	callstack 0
  3944  002A64                     _hal_timer0_interrupt_disable:
  3945                           	callstack 27
  3946  002A64                     
  3947                           ;MCAL_Layer/Timer0/hal_timer0.c: 343:     if(timer0 != ((void*)0)){
  3948  002A64  5038               	movf	hal_timer0_interrupt_disable@timer0^0,w,c
  3949  002A66  1039               	iorwf	(hal_timer0_interrupt_disable@timer0+1)^0,w,c
  3950  002A68  B4D8               	btfsc	status,2,c
  3951  002A6A  EF39  F015         	goto	u8571
  3952  002A6E  EF3B  F015         	goto	u8570
  3953  002A72                     u8571:
  3954  002A72  EF3E  F015         	goto	l9396
  3955  002A76                     u8570:
  3956  002A76                     
  3957                           ;MCAL_Layer/Timer0/hal_timer0.c: 345:         (INTCONbits.TMR0IE = 0);
  3958  002A76  9AF2               	bcf	242,5,c	;volatile
  3959                           
  3960                           ;MCAL_Layer/Timer0/hal_timer0.c: 347:     }
  3961  002A78  EF3E  F015         	goto	l1322
  3962  002A7C                     l9396:
  3963  002A7C                     l1322:
  3964  002A7C  0012               	return		;funcret
  3965  002A7E                     __end_of_hal_timer0_interrupt_disable:
  3966                           	callstack 0
  3967                           
  3968 ;; *************** function _hal_timer0_initialize *****************
  3969 ;; Defined at:
  3970 ;;		line 24 in file "MCAL_Layer/Timer0/hal_timer0.c"
  3971 ;; Parameters:    Size  Location     Type
  3972 ;;  timer0          2    9[COMRAM] PTR const struct .
  3973 ;;		 -> tmr0(10), 
  3974 ;; Auto vars:     Size  Location     Type
  3975 ;;  status          1    0        unsigned char 
  3976 ;; Return value:  Size  Location     Type
  3977 ;;                  1    wreg      unsigned char 
  3978 ;; Registers used:
  3979 ;;		wreg, fsr2l, fsr2h, status,2, status,0, cstack
  3980 ;; Tracked objects:
  3981 ;;		On entry : 0/0
  3982 ;;		On exit  : 0/0
  3983 ;;		Unchanged: 0/0
  3984 ;; Data sizes:     COMRAM   BANK0   BANK1   BANK2   BANK3   BANK4   BANK5   BANK6   BANK7   BANK8   BANK9  BANK10  BANK1
      +1  BANK12  BANK13  BANK14  BANK15
  3985 ;;      Params:         2       0       0       0       0       0       0       0       0       0       0       0       
      +0       0       0       0       0
  3986 ;;      Locals:         0       0       0       0       0       0       0       0       0       0       0       0       
      +0       0       0       0       0
  3987 ;;      Temps:          2       0       0       0       0       0       0       0       0       0       0       0       
      +0       0       0       0       0
  3988 ;;      Totals:         4       0       0       0       0       0       0       0       0       0       0       0       
      +0       0       0       0       0
  3989 ;;Total ram usage:        4 bytes
  3990 ;; Hardware stack levels used: 1
  3991 ;; Hardware stack levels required when called: 5
  3992 ;; This function calls:
  3993 ;;		_hal_timer0_disable_prescaler
  3994 ;;		_hal_timer0_enable_prescaler
  3995 ;;		_hal_timer0_interrupt_enable
  3996 ;;		_hal_timer0_interrupt_handler_init
  3997 ;;		_hal_timer0_select_8bit_or_16bit_mode
  3998 ;;		_hal_timer0_select_clock_source
  3999 ;;		_hal_timer0_select_edge_increment
  4000 ;;		_hal_timer0_set_prescaler_value
  4001 ;; This function is called by:
  4002 ;;		_main
  4003 ;; This function uses a non-reentrant model
  4004 ;;
  4005                           
  4006                           	psect	text14
  4007  001F2C                     __ptext14:
  4008                           	callstack 0
  4009  001F2C                     _hal_timer0_initialize:
  4010                           	callstack 25
  4011  001F2C                     
  4012                           ;MCAL_Layer/Timer0/hal_timer0.c: 26:     if(timer0 != ((void*)0)){
  4013  001F2C  503E               	movf	hal_timer0_initialize@timer0^0,w,c
  4014  001F2E  103F               	iorwf	(hal_timer0_initialize@timer0+1)^0,w,c
  4015  001F30  B4D8               	btfsc	status,2,c
  4016  001F32  EF9D  F00F         	goto	u8541
  4017  001F36  EF9F  F00F         	goto	u8540
  4018  001F3A                     u8541:
  4019  001F3A  EF0A  F010         	goto	l9386
  4020  001F3E                     u8540:
  4021  001F3E                     
  4022                           ;MCAL_Layer/Timer0/hal_timer0.c: 30:         (T0CONbits.TMR0ON = 0);
  4023  001F3E  9ED5               	bcf	213,7,c	;volatile
  4024  001F40                     
  4025                           ;MCAL_Layer/Timer0/hal_timer0.c: 37:         hal_timer0_select_clock_source(timer0);
  4026  001F40  C03E  F03B         	movff	hal_timer0_initialize@timer0,hal_timer0_select_clock_source@timer0
  4027  001F44  C03F  F03C         	movff	hal_timer0_initialize@timer0+1,hal_timer0_select_clock_source@timer0+1
  4028  001F48  EC9C  F012         	call	_hal_timer0_select_clock_source	;wreg free
  4029                           
  4030                           ;MCAL_Layer/Timer0/hal_timer0.c: 40:         hal_timer0_select_edge_increment(timer0);
  4031  001F4C  C03E  F038         	movff	hal_timer0_initialize@timer0,hal_timer0_select_edge_increment@timer0
  4032  001F50  C03F  F039         	movff	hal_timer0_initialize@timer0+1,hal_timer0_select_edge_increment@timer0+1
  4033  001F54  EC27  F014         	call	_hal_timer0_select_edge_increment	;wreg free
  4034                           
  4035                           ;MCAL_Layer/Timer0/hal_timer0.c: 42:         hal_timer0_select_8bit_or_16bit_mode(timer0
      +                          );
  4036  001F58  C03E  F038         	movff	hal_timer0_initialize@timer0,hal_timer0_select_8bit_or_16bit_mode@timer0
  4037  001F5C  C03F  F039         	movff	hal_timer0_initialize@timer0+1,hal_timer0_select_8bit_or_16bit_mode@timer0+1
  4038  001F60  EC53  F014         	call	_hal_timer0_select_8bit_or_16bit_mode	;wreg free
  4039  001F64                     
  4040                           ;MCAL_Layer/Timer0/hal_timer0.c: 45:         if(timer0->prescaler_enable_bit == ((uint8_
      +                          t)0)){
  4041  001F64  EE20 F006          	lfsr	2,6
  4042  001F68  503E               	movf	hal_timer0_initialize@timer0^0,w,c
  4043  001F6A  26D9               	addwf	fsr2l,f,c
  4044  001F6C  503F               	movf	(hal_timer0_initialize@timer0+1)^0,w,c
  4045  001F6E  22DA               	addwfc	fsr2h,f,c
  4046  001F70  50DF               	movf	indf2,w,c
  4047  001F72  A4D8               	btfss	status,2,c
  4048  001F74  EFBE  F00F         	goto	u8551
  4049  001F78  EFC0  F00F         	goto	u8550
  4050  001F7C                     u8551:
  4051  001F7C  EFCE  F00F         	goto	l9370
  4052  001F80                     u8550:
  4053  001F80                     
  4054                           ;MCAL_Layer/Timer0/hal_timer0.c: 46:             hal_timer0_enable_prescaler(timer0);
  4055  001F80  C03E  F038         	movff	hal_timer0_initialize@timer0,hal_timer0_enable_prescaler@timer0
  4056  001F84  C03F  F039         	movff	hal_timer0_initialize@timer0+1,hal_timer0_enable_prescaler@timer0+1
  4057  001F88  ECC2  F014         	call	_hal_timer0_enable_prescaler	;wreg free
  4058                           
  4059                           ;MCAL_Layer/Timer0/hal_timer0.c: 47:             hal_timer0_set_prescaler_value(timer0);
  4060  001F8C  C03E  F038         	movff	hal_timer0_initialize@timer0,hal_timer0_set_prescaler_value@timer0
  4061  001F90  C03F  F039         	movff	hal_timer0_initialize@timer0+1,hal_timer0_set_prescaler_value@timer0+1
  4062  001F94  EC0B  F010         	call	_hal_timer0_set_prescaler_value	;wreg free
  4063                           
  4064                           ;MCAL_Layer/Timer0/hal_timer0.c: 48:         }
  4065  001F98  EFE4  F00F         	goto	l9376
  4066  001F9C                     l9370:
  4067  001F9C  EE20 F006          	lfsr	2,6
  4068  001FA0  503E               	movf	hal_timer0_initialize@timer0^0,w,c
  4069  001FA2  26D9               	addwf	fsr2l,f,c
  4070  001FA4  503F               	movf	(hal_timer0_initialize@timer0+1)^0,w,c
  4071  001FA6  22DA               	addwfc	fsr2h,f,c
  4072  001FA8  04DE               	decf	postinc2,w,c
  4073  001FAA  A4D8               	btfss	status,2,c
  4074  001FAC  EFDA  F00F         	goto	u8561
  4075  001FB0  EFDC  F00F         	goto	u8560
  4076  001FB4                     u8561:
  4077  001FB4  EFE4  F00F         	goto	l9374
  4078  001FB8                     u8560:
  4079  001FB8                     
  4080                           ;MCAL_Layer/Timer0/hal_timer0.c: 50:             hal_timer0_disable_prescaler(timer0);
  4081  001FB8  C03E  F038         	movff	hal_timer0_initialize@timer0,hal_timer0_disable_prescaler@timer0
  4082  001FBC  C03F  F039         	movff	hal_timer0_initialize@timer0+1,hal_timer0_disable_prescaler@timer0+1
  4083  001FC0  ECDD  F014         	call	_hal_timer0_disable_prescaler	;wreg free
  4084                           
  4085                           ;MCAL_Layer/Timer0/hal_timer0.c: 51:         }
  4086  001FC4  EFE4  F00F         	goto	l9376
  4087  001FC8                     l9374:
  4088  001FC8                     l9376:
  4089                           
  4090                           ;MCAL_Layer/Timer0/hal_timer0.c: 56:         TMR0H = (timer0->preloaded_value)>>8;
  4091  001FC8  EE20 F008          	lfsr	2,8
  4092  001FCC  503E               	movf	hal_timer0_initialize@timer0^0,w,c
  4093  001FCE  26D9               	addwf	fsr2l,f,c
  4094  001FD0  503F               	movf	(hal_timer0_initialize@timer0+1)^0,w,c
  4095  001FD2  22DA               	addwfc	fsr2h,f,c
  4096  001FD4  CFDE F040          	movff	postinc2,??_hal_timer0_initialize
  4097  001FD8  CFDD F041          	movff	postdec2,??_hal_timer0_initialize+1
  4098  001FDC  C041  F040         	movff	??_hal_timer0_initialize+1,??_hal_timer0_initialize
  4099  001FE0  6A41               	clrf	(??_hal_timer0_initialize+1)^0,c
  4100  001FE2  5040               	movf	??_hal_timer0_initialize^0,w,c
  4101  001FE4  6ED7               	movwf	215,c	;volatile
  4102  001FE6                     
  4103                           ;MCAL_Layer/Timer0/hal_timer0.c: 57:         TMR0L = (uint8_t)(timer0->preloaded_value);
  4104  001FE6  EE20 F008          	lfsr	2,8
  4105  001FEA  503E               	movf	hal_timer0_initialize@timer0^0,w,c
  4106  001FEC  26D9               	addwf	fsr2l,f,c
  4107  001FEE  503F               	movf	(hal_timer0_initialize@timer0+1)^0,w,c
  4108  001FF0  22DA               	addwfc	fsr2h,f,c
  4109  001FF2  50DF               	movf	indf2,w,c
  4110  001FF4  6ED6               	movwf	214,c	;volatile
  4111  001FF6                     
  4112                           ;MCAL_Layer/Timer0/hal_timer0.c: 61:         hal_timer0_interrupt_handler_init(timer0);
  4113  001FF6  C03E  F038         	movff	hal_timer0_initialize@timer0,hal_timer0_interrupt_handler_init@timer0
  4114  001FFA  C03F  F039         	movff	hal_timer0_initialize@timer0+1,hal_timer0_interrupt_handler_init@timer0+1
  4115  001FFE  EC0F  F015         	call	_hal_timer0_interrupt_handler_init	;wreg free
  4116  002002                     
  4117                           ;MCAL_Layer/Timer0/hal_timer0.c: 64:         hal_timer0_interrupt_enable(timer0);
  4118  002002  C03E  F038         	movff	hal_timer0_initialize@timer0,hal_timer0_interrupt_enable@timer0
  4119  002006  C03F  F039         	movff	hal_timer0_initialize@timer0+1,hal_timer0_interrupt_enable@timer0+1
  4120  00200A  EC23  F015         	call	_hal_timer0_interrupt_enable	;wreg free
  4121  00200E                     
  4122                           ;MCAL_Layer/Timer0/hal_timer0.c: 68:         (T0CONbits.TMR0ON = 1);
  4123  00200E  8ED5               	bsf	213,7,c	;volatile
  4124                           
  4125                           ;MCAL_Layer/Timer0/hal_timer0.c: 69:     }
  4126  002010  EF0A  F010         	goto	l1240
  4127  002014                     l9386:
  4128  002014                     l1240:
  4129  002014  0012               	return		;funcret
  4130  002016                     __end_of_hal_timer0_initialize:
  4131                           	callstack 0
  4132                           
  4133 ;; *************** function _hal_timer0_set_prescaler_value *****************
  4134 ;; Defined at:
  4135 ;;		line 257 in file "MCAL_Layer/Timer0/hal_timer0.c"
  4136 ;; Parameters:    Size  Location     Type
  4137 ;;  timer0          2    3[COMRAM] PTR const struct .
  4138 ;;		 -> tmr0(10), 
  4139 ;; Auto vars:     Size  Location     Type
  4140 ;;  status          1    0        unsigned char 
  4141 ;; Return value:  Size  Location     Type
  4142 ;;                  1    wreg      unsigned char 
  4143 ;; Registers used:
  4144 ;;		wreg, fsr2l, fsr2h, status,2, status,0
  4145 ;; Tracked objects:
  4146 ;;		On entry : 0/0
  4147 ;;		On exit  : 0/0
  4148 ;;		Unchanged: 0/0
  4149 ;; Data sizes:     COMRAM   BANK0   BANK1   BANK2   BANK3   BANK4   BANK5   BANK6   BANK7   BANK8   BANK9  BANK10  BANK1
      +1  BANK12  BANK13  BANK14  BANK15
  4150 ;;      Params:         2       0       0       0       0       0       0       0       0       0       0       0       
      +0       0       0       0       0
  4151 ;;      Locals:         0       0       0       0       0       0       0       0       0       0       0       0       
      +0       0       0       0       0
  4152 ;;      Temps:          2       0       0       0       0       0       0       0       0       0       0       0       
      +0       0       0       0       0
  4153 ;;      Totals:         4       0       0       0       0       0       0       0       0       0       0       0       
      +0       0       0       0       0
  4154 ;;Total ram usage:        4 bytes
  4155 ;; Hardware stack levels used: 1
  4156 ;; Hardware stack levels required when called: 3
  4157 ;; This function calls:
  4158 ;;		Nothing
  4159 ;; This function is called by:
  4160 ;;		_hal_timer0_initialize
  4161 ;; This function uses a non-reentrant model
  4162 ;;
  4163                           
  4164                           	psect	text15
  4165  002016                     __ptext15:
  4166                           	callstack 0
  4167  002016                     _hal_timer0_set_prescaler_value:
  4168                           	callstack 26
  4169  002016                     
  4170                           ;MCAL_Layer/Timer0/hal_timer0.c: 259:     if(timer0 != ((void*)0)){
  4171  002016  5038               	movf	hal_timer0_set_prescaler_value@timer0^0,w,c
  4172  002018  1039               	iorwf	(hal_timer0_set_prescaler_value@timer0+1)^0,w,c
  4173  00201A  B4D8               	btfsc	status,2,c
  4174  00201C  EF12  F010         	goto	u8301
  4175  002020  EF14  F010         	goto	u8300
  4176  002024                     u8301:
  4177  002024  EF44  F010         	goto	l9094
  4178  002028                     u8300:
  4179  002028  EF46  F010         	goto	l9098
  4180  00202C                     l9078:
  4181                           
  4182                           ;MCAL_Layer/Timer0/hal_timer0.c: 262:                 (T0CONbits.T0PS = TIMER0_PSF_DIV_B
      +                          Y_2);
  4183  00202C  0EF8               	movlw	-8
  4184  00202E  16D5               	andwf	213,f,c	;volatile
  4185                           
  4186                           ;MCAL_Layer/Timer0/hal_timer0.c: 263:                 break;
  4187  002030  EF79  F010         	goto	l1312
  4188  002034                     l9080:
  4189                           
  4190                           ;MCAL_Layer/Timer0/hal_timer0.c: 265:                 (T0CONbits.T0PS = TIMER0_PSF_DIV_B
      +                          Y_4);
  4191  002034  50D5               	movf	213,w,c	;volatile
  4192  002036  0BF8               	andlw	-8
  4193  002038  0901               	iorlw	1
  4194  00203A  6ED5               	movwf	213,c	;volatile
  4195                           
  4196                           ;MCAL_Layer/Timer0/hal_timer0.c: 266:                 break;
  4197  00203C  EF79  F010         	goto	l1312
  4198  002040                     l9082:
  4199                           
  4200                           ;MCAL_Layer/Timer0/hal_timer0.c: 268:                 (T0CONbits.T0PS = TIMER0_PSF_DIV_B
      +                          Y_8);
  4201  002040  50D5               	movf	213,w,c	;volatile
  4202  002042  0BF8               	andlw	-8
  4203  002044  0902               	iorlw	2
  4204  002046  6ED5               	movwf	213,c	;volatile
  4205                           
  4206                           ;MCAL_Layer/Timer0/hal_timer0.c: 269:                 break;
  4207  002048  EF79  F010         	goto	l1312
  4208  00204C                     l9084:
  4209                           
  4210                           ;MCAL_Layer/Timer0/hal_timer0.c: 271:                 (T0CONbits.T0PS = TIMER0_PSF_DIV_B
      +                          Y_16);
  4211  00204C  50D5               	movf	213,w,c	;volatile
  4212  00204E  0BF8               	andlw	-8
  4213  002050  0903               	iorlw	3
  4214  002052  6ED5               	movwf	213,c	;volatile
  4215                           
  4216                           ;MCAL_Layer/Timer0/hal_timer0.c: 272:                 break;
  4217  002054  EF79  F010         	goto	l1312
  4218  002058                     l9086:
  4219                           
  4220                           ;MCAL_Layer/Timer0/hal_timer0.c: 274:                 (T0CONbits.T0PS = TIMER0_PSF_DIV_B
      +                          Y_32);
  4221  002058  50D5               	movf	213,w,c	;volatile
  4222  00205A  0BF8               	andlw	-8
  4223  00205C  0904               	iorlw	4
  4224  00205E  6ED5               	movwf	213,c	;volatile
  4225                           
  4226                           ;MCAL_Layer/Timer0/hal_timer0.c: 275:                 break;
  4227  002060  EF79  F010         	goto	l1312
  4228  002064                     l9088:
  4229                           
  4230                           ;MCAL_Layer/Timer0/hal_timer0.c: 277:                 (T0CONbits.T0PS = TIMER0_PSF_DIV_B
      +                          Y_64);
  4231  002064  50D5               	movf	213,w,c	;volatile
  4232  002066  0BF8               	andlw	-8
  4233  002068  0905               	iorlw	5
  4234  00206A  6ED5               	movwf	213,c	;volatile
  4235                           
  4236                           ;MCAL_Layer/Timer0/hal_timer0.c: 278:                 break;
  4237  00206C  EF79  F010         	goto	l1312
  4238  002070                     l9090:
  4239                           
  4240                           ;MCAL_Layer/Timer0/hal_timer0.c: 280:                 (T0CONbits.T0PS = TIMER0_PSF_DIV_B
      +                          Y_128);
  4241  002070  50D5               	movf	213,w,c	;volatile
  4242  002072  0BF8               	andlw	-8
  4243  002074  0906               	iorlw	6
  4244  002076  6ED5               	movwf	213,c	;volatile
  4245                           
  4246                           ;MCAL_Layer/Timer0/hal_timer0.c: 281:                 break;
  4247  002078  EF79  F010         	goto	l1312
  4248  00207C                     l9092:
  4249                           
  4250                           ;MCAL_Layer/Timer0/hal_timer0.c: 283:                 (T0CONbits.T0PS = TIMER0_PSF_DIV_B
      +                          Y_128);
  4251  00207C  50D5               	movf	213,w,c	;volatile
  4252  00207E  0BF8               	andlw	-8
  4253  002080  0906               	iorlw	6
  4254  002082  6ED5               	movwf	213,c	;volatile
  4255                           
  4256                           ;MCAL_Layer/Timer0/hal_timer0.c: 284:                 break;
  4257  002084  EF79  F010         	goto	l1312
  4258  002088                     l9094:
  4259                           
  4260                           ;MCAL_Layer/Timer0/hal_timer0.c: 287:                 break;
  4261  002088  EF79  F010         	goto	l1312
  4262  00208C                     l9098:
  4263  00208C  EE20 F007          	lfsr	2,7
  4264  002090  5038               	movf	hal_timer0_set_prescaler_value@timer0^0,w,c
  4265  002092  26D9               	addwf	fsr2l,f,c
  4266  002094  5039               	movf	(hal_timer0_set_prescaler_value@timer0+1)^0,w,c
  4267  002096  22DA               	addwfc	fsr2h,f,c
  4268  002098  50DF               	movf	indf2,w,c
  4269  00209A  6E3A               	movwf	??_hal_timer0_set_prescaler_value^0,c
  4270  00209C  6A3B               	clrf	(??_hal_timer0_set_prescaler_value+1)^0,c
  4271                           
  4272                           ; Switch on 2 bytes has been partitioned into a top level switch of size 1, and 1 sub-sw
      +                          itches
  4273                           ; Switch size 1, requested type "simple"
  4274                           ; Number of cases is 1, Range of values is 0 to 0
  4275                           ; switch strategies available:
  4276                           ; Name         Instructions Cycles
  4277                           ; simple_byte            4     3 (average)
  4278                           ;	Chosen strategy is simple_byte
  4279  00209E  503B               	movf	(??_hal_timer0_set_prescaler_value+1)^0,w,c
  4280  0020A0  0A00               	xorlw	0	; case 0
  4281  0020A2  B4D8               	btfsc	status,2,c
  4282  0020A4  EF56  F010         	goto	l10100
  4283  0020A8  EF44  F010         	goto	l9094
  4284  0020AC                     l10100:
  4285                           
  4286                           ; Switch size 1, requested type "simple"
  4287                           ; Number of cases is 8, Range of values is 0 to 7
  4288                           ; switch strategies available:
  4289                           ; Name         Instructions Cycles
  4290                           ; simple_byte           25    13 (average)
  4291                           ;	Chosen strategy is simple_byte
  4292  0020AC  503A               	movf	??_hal_timer0_set_prescaler_value^0,w,c
  4293  0020AE  0A00               	xorlw	0	; case 0
  4294  0020B0  B4D8               	btfsc	status,2,c
  4295  0020B2  EF16  F010         	goto	l9078
  4296  0020B6  0A01               	xorlw	1	; case 1
  4297  0020B8  B4D8               	btfsc	status,2,c
  4298  0020BA  EF1A  F010         	goto	l9080
  4299  0020BE  0A03               	xorlw	3	; case 2
  4300  0020C0  B4D8               	btfsc	status,2,c
  4301  0020C2  EF20  F010         	goto	l9082
  4302  0020C6  0A01               	xorlw	1	; case 3
  4303  0020C8  B4D8               	btfsc	status,2,c
  4304  0020CA  EF26  F010         	goto	l9084
  4305  0020CE  0A07               	xorlw	7	; case 4
  4306  0020D0  B4D8               	btfsc	status,2,c
  4307  0020D2  EF2C  F010         	goto	l9086
  4308  0020D6  0A01               	xorlw	1	; case 5
  4309  0020D8  B4D8               	btfsc	status,2,c
  4310  0020DA  EF32  F010         	goto	l9088
  4311  0020DE  0A03               	xorlw	3	; case 6
  4312  0020E0  B4D8               	btfsc	status,2,c
  4313  0020E2  EF38  F010         	goto	l9090
  4314  0020E6  0A01               	xorlw	1	; case 7
  4315  0020E8  B4D8               	btfsc	status,2,c
  4316  0020EA  EF3E  F010         	goto	l9092
  4317  0020EE  EF44  F010         	goto	l9094
  4318  0020F2                     l1312:
  4319  0020F2  0012               	return		;funcret
  4320  0020F4                     __end_of_hal_timer0_set_prescaler_value:
  4321                           	callstack 0
  4322                           
  4323 ;; *************** function _hal_timer0_select_clock_source *****************
  4324 ;; Defined at:
  4325 ;;		line 135 in file "MCAL_Layer/Timer0/hal_timer0.c"
  4326 ;; Parameters:    Size  Location     Type
  4327 ;;  timer0          2    6[COMRAM] PTR const struct .
  4328 ;;		 -> tmr0(10), 
  4329 ;; Auto vars:     Size  Location     Type
  4330 ;;  status          1    0        unsigned char 
  4331 ;; Return value:  Size  Location     Type
  4332 ;;                  1    wreg      unsigned char 
  4333 ;; Registers used:
  4334 ;;		wreg, fsr2l, fsr2h, status,2, status,0, cstack
  4335 ;; Tracked objects:
  4336 ;;		On entry : 0/0
  4337 ;;		On exit  : 0/0
  4338 ;;		Unchanged: 0/0
  4339 ;; Data sizes:     COMRAM   BANK0   BANK1   BANK2   BANK3   BANK4   BANK5   BANK6   BANK7   BANK8   BANK9  BANK10  BANK1
      +1  BANK12  BANK13  BANK14  BANK15
  4340 ;;      Params:         2       0       0       0       0       0       0       0       0       0       0       0       
      +0       0       0       0       0
  4341 ;;      Locals:         0       0       0       0       0       0       0       0       0       0       0       0       
      +0       0       0       0       0
  4342 ;;      Temps:          1       0       0       0       0       0       0       0       0       0       0       0       
      +0       0       0       0       0
  4343 ;;      Totals:         3       0       0       0       0       0       0       0       0       0       0       0       
      +0       0       0       0       0
  4344 ;;Total ram usage:        3 bytes
  4345 ;; Hardware stack levels used: 1
  4346 ;; Hardware stack levels required when called: 4
  4347 ;; This function calls:
  4348 ;;		_hal_timer0_select_edge_increment
  4349 ;; This function is called by:
  4350 ;;		_hal_timer0_initialize
  4351 ;; This function uses a non-reentrant model
  4352 ;;
  4353                           
  4354                           	psect	text16
  4355  002538                     __ptext16:
  4356                           	callstack 0
  4357  002538                     _hal_timer0_select_clock_source:
  4358                           	callstack 25
  4359  002538                     
  4360                           ;MCAL_Layer/Timer0/hal_timer0.c: 137:     if(timer0 != ((void*)0)){
  4361  002538  503B               	movf	hal_timer0_select_clock_source@timer0^0,w,c
  4362  00253A  103C               	iorwf	(hal_timer0_select_clock_source@timer0+1)^0,w,c
  4363  00253C  B4D8               	btfsc	status,2,c
  4364  00253E  EFA3  F012         	goto	u8201
  4365  002542  EFA5  F012         	goto	u8200
  4366  002546                     u8201:
  4367  002546  EFE9  F012         	goto	l9034
  4368  00254A                     u8200:
  4369  00254A                     
  4370                           ;MCAL_Layer/Timer0/hal_timer0.c: 139:         if(timer0->mode == TIMER0_TIMER_MODE && ti
      +                          mer0->clocksrc == ((uint8_t)0)){
  4371  00254A  EE20 F002          	lfsr	2,2
  4372  00254E  503B               	movf	hal_timer0_select_clock_source@timer0^0,w,c
  4373  002550  26D9               	addwf	fsr2l,f,c
  4374  002552  503C               	movf	(hal_timer0_select_clock_source@timer0+1)^0,w,c
  4375  002554  22DA               	addwfc	fsr2h,f,c
  4376  002556  50DF               	movf	indf2,w,c
  4377  002558  A4D8               	btfss	status,2,c
  4378  00255A  EFB1  F012         	goto	u8211
  4379  00255E  EFB3  F012         	goto	u8210
  4380  002562                     u8211:
  4381  002562  EFC4  F012         	goto	l9026
  4382  002566                     u8210:
  4383  002566  EE20 F004          	lfsr	2,4
  4384  00256A  503B               	movf	hal_timer0_select_clock_source@timer0^0,w,c
  4385  00256C  26D9               	addwf	fsr2l,f,c
  4386  00256E  503C               	movf	(hal_timer0_select_clock_source@timer0+1)^0,w,c
  4387  002570  22DA               	addwfc	fsr2h,f,c
  4388  002572  50DF               	movf	indf2,w,c
  4389  002574  A4D8               	btfss	status,2,c
  4390  002576  EFBF  F012         	goto	u8221
  4391  00257A  EFC1  F012         	goto	u8220
  4392  00257E                     u8221:
  4393  00257E  EFC4  F012         	goto	l9026
  4394  002582                     u8220:
  4395  002582                     
  4396                           ;MCAL_Layer/Timer0/hal_timer0.c: 140:             (T0CONbits.T0CS = 0);
  4397  002582  9AD5               	bcf	213,5,c	;volatile
  4398                           
  4399                           ;MCAL_Layer/Timer0/hal_timer0.c: 141:         }
  4400  002584  EFE9  F012         	goto	l1264
  4401  002588                     l9026:
  4402  002588  EE20 F002          	lfsr	2,2
  4403  00258C  503B               	movf	hal_timer0_select_clock_source@timer0^0,w,c
  4404  00258E  26D9               	addwf	fsr2l,f,c
  4405  002590  503C               	movf	(hal_timer0_select_clock_source@timer0+1)^0,w,c
  4406  002592  22DA               	addwfc	fsr2h,f,c
  4407  002594  04DE               	decf	postinc2,w,c
  4408  002596  A4D8               	btfss	status,2,c
  4409  002598  EFD0  F012         	goto	u8231
  4410  00259C  EFD2  F012         	goto	u8230
  4411  0025A0                     u8231:
  4412  0025A0  EFE9  F012         	goto	l9034
  4413  0025A4                     u8230:
  4414  0025A4  EE20 F004          	lfsr	2,4
  4415  0025A8  503B               	movf	hal_timer0_select_clock_source@timer0^0,w,c
  4416  0025AA  26D9               	addwf	fsr2l,f,c
  4417  0025AC  503C               	movf	(hal_timer0_select_clock_source@timer0+1)^0,w,c
  4418  0025AE  22DA               	addwfc	fsr2h,f,c
  4419  0025B0  04DE               	decf	postinc2,w,c
  4420  0025B2  A4D8               	btfss	status,2,c
  4421  0025B4  EFDE  F012         	goto	u8241
  4422  0025B8  EFE0  F012         	goto	u8240
  4423  0025BC                     u8241:
  4424  0025BC  EFE9  F012         	goto	l9034
  4425  0025C0                     u8240:
  4426  0025C0                     
  4427                           ;MCAL_Layer/Timer0/hal_timer0.c: 143:             (T0CONbits.T0CS = 1);
  4428  0025C0  8AD5               	bsf	213,5,c	;volatile
  4429  0025C2                     
  4430                           ;MCAL_Layer/Timer0/hal_timer0.c: 145:             hal_timer0_select_edge_increment(timer
      +                          0);
  4431  0025C2  C03B  F038         	movff	hal_timer0_select_clock_source@timer0,hal_timer0_select_edge_increment@timer0
  4432  0025C6  C03C  F039         	movff	hal_timer0_select_clock_source@timer0+1,hal_timer0_select_edge_increment@timer0+1
  4433  0025CA  EC27  F014         	call	_hal_timer0_select_edge_increment	;wreg free
  4434                           
  4435                           ;MCAL_Layer/Timer0/hal_timer0.c: 146:         }
  4436  0025CE  EFE9  F012         	goto	l1264
  4437  0025D2                     l9034:
  4438  0025D2                     l1264:
  4439  0025D2  0012               	return		;funcret
  4440  0025D4                     __end_of_hal_timer0_select_clock_source:
  4441                           	callstack 0
  4442                           
  4443 ;; *************** function _hal_timer0_select_edge_increment *****************
  4444 ;; Defined at:
  4445 ;;		line 162 in file "MCAL_Layer/Timer0/hal_timer0.c"
  4446 ;; Parameters:    Size  Location     Type
  4447 ;;  timer0          2    3[COMRAM] PTR const struct .
  4448 ;;		 -> tmr0(10), 
  4449 ;; Auto vars:     Size  Location     Type
  4450 ;;  status          1    0        unsigned char 
  4451 ;; Return value:  Size  Location     Type
  4452 ;;                  1    wreg      unsigned char 
  4453 ;; Registers used:
  4454 ;;		wreg, fsr2l, fsr2h, status,2, status,0
  4455 ;; Tracked objects:
  4456 ;;		On entry : 0/0
  4457 ;;		On exit  : 0/0
  4458 ;;		Unchanged: 0/0
  4459 ;; Data sizes:     COMRAM   BANK0   BANK1   BANK2   BANK3   BANK4   BANK5   BANK6   BANK7   BANK8   BANK9  BANK10  BANK1
      +1  BANK12  BANK13  BANK14  BANK15
  4460 ;;      Params:         2       0       0       0       0       0       0       0       0       0       0       0       
      +0       0       0       0       0
  4461 ;;      Locals:         0       0       0       0       0       0       0       0       0       0       0       0       
      +0       0       0       0       0
  4462 ;;      Temps:          1       0       0       0       0       0       0       0       0       0       0       0       
      +0       0       0       0       0
  4463 ;;      Totals:         3       0       0       0       0       0       0       0       0       0       0       0       
      +0       0       0       0       0
  4464 ;;Total ram usage:        3 bytes
  4465 ;; Hardware stack levels used: 1
  4466 ;; Hardware stack levels required when called: 3
  4467 ;; This function calls:
  4468 ;;		Nothing
  4469 ;; This function is called by:
  4470 ;;		_hal_timer0_initialize
  4471 ;;		_hal_timer0_select_clock_source
  4472 ;; This function uses a non-reentrant model
  4473 ;;
  4474                           
  4475                           	psect	text17
  4476  00284E                     __ptext17:
  4477                           	callstack 0
  4478  00284E                     _hal_timer0_select_edge_increment:
  4479                           	callstack 26
  4480  00284E                     
  4481                           ;MCAL_Layer/Timer0/hal_timer0.c: 164:     if(timer0 != ((void*)0)){
  4482  00284E  5038               	movf	hal_timer0_select_edge_increment@timer0^0,w,c
  4483  002850  1039               	iorwf	(hal_timer0_select_edge_increment@timer0+1)^0,w,c
  4484  002852  B4D8               	btfsc	status,2,c
  4485  002854  EF2E  F014         	goto	u7971
  4486  002858  EF30  F014         	goto	u7970
  4487  00285C                     u7971:
  4488  00285C  EF52  F014         	goto	l8846
  4489  002860                     u7970:
  4490  002860                     
  4491                           ;MCAL_Layer/Timer0/hal_timer0.c: 166:         if(timer0->edge_incr == ((uint8_t)0)){
  4492  002860  EE20 F005          	lfsr	2,5
  4493  002864  5038               	movf	hal_timer0_select_edge_increment@timer0^0,w,c
  4494  002866  26D9               	addwf	fsr2l,f,c
  4495  002868  5039               	movf	(hal_timer0_select_edge_increment@timer0+1)^0,w,c
  4496  00286A  22DA               	addwfc	fsr2h,f,c
  4497  00286C  50DF               	movf	indf2,w,c
  4498  00286E  A4D8               	btfss	status,2,c
  4499  002870  EF3C  F014         	goto	u7981
  4500  002874  EF3E  F014         	goto	u7980
  4501  002878                     u7981:
  4502  002878  EF41  F014         	goto	l8842
  4503  00287C                     u7980:
  4504  00287C                     
  4505                           ;MCAL_Layer/Timer0/hal_timer0.c: 167:             (T0CONbits.T0SE = 0);
  4506  00287C  98D5               	bcf	213,4,c	;volatile
  4507                           
  4508                           ;MCAL_Layer/Timer0/hal_timer0.c: 168:         }
  4509  00287E  EF52  F014         	goto	l1273
  4510  002882                     l8842:
  4511  002882  EE20 F005          	lfsr	2,5
  4512  002886  5038               	movf	hal_timer0_select_edge_increment@timer0^0,w,c
  4513  002888  26D9               	addwf	fsr2l,f,c
  4514  00288A  5039               	movf	(hal_timer0_select_edge_increment@timer0+1)^0,w,c
  4515  00288C  22DA               	addwfc	fsr2h,f,c
  4516  00288E  04DE               	decf	postinc2,w,c
  4517  002890  A4D8               	btfss	status,2,c
  4518  002892  EF4D  F014         	goto	u7991
  4519  002896  EF4F  F014         	goto	u7990
  4520  00289A                     u7991:
  4521  00289A  EF52  F014         	goto	l8846
  4522  00289E                     u7990:
  4523  00289E                     
  4524                           ;MCAL_Layer/Timer0/hal_timer0.c: 170:             (T0CONbits.T0SE = 1);
  4525  00289E  88D5               	bsf	213,4,c	;volatile
  4526                           
  4527                           ;MCAL_Layer/Timer0/hal_timer0.c: 171:         }
  4528  0028A0  EF52  F014         	goto	l1273
  4529  0028A4                     l8846:
  4530  0028A4                     l1273:
  4531  0028A4  0012               	return		;funcret
  4532  0028A6                     __end_of_hal_timer0_select_edge_increment:
  4533                           	callstack 0
  4534                           
  4535 ;; *************** function _hal_timer0_select_8bit_or_16bit_mode *****************
  4536 ;; Defined at:
  4537 ;;		line 188 in file "MCAL_Layer/Timer0/hal_timer0.c"
  4538 ;; Parameters:    Size  Location     Type
  4539 ;;  timer0          2    3[COMRAM] PTR const struct .
  4540 ;;		 -> tmr0(10), 
  4541 ;; Auto vars:     Size  Location     Type
  4542 ;;  status          1    0        unsigned char 
  4543 ;; Return value:  Size  Location     Type
  4544 ;;                  1    wreg      unsigned char 
  4545 ;; Registers used:
  4546 ;;		wreg, fsr2l, fsr2h, status,2, status,0
  4547 ;; Tracked objects:
  4548 ;;		On entry : 0/0
  4549 ;;		On exit  : 0/0
  4550 ;;		Unchanged: 0/0
  4551 ;; Data sizes:     COMRAM   BANK0   BANK1   BANK2   BANK3   BANK4   BANK5   BANK6   BANK7   BANK8   BANK9  BANK10  BANK1
      +1  BANK12  BANK13  BANK14  BANK15
  4552 ;;      Params:         2       0       0       0       0       0       0       0       0       0       0       0       
      +0       0       0       0       0
  4553 ;;      Locals:         0       0       0       0       0       0       0       0       0       0       0       0       
      +0       0       0       0       0
  4554 ;;      Temps:          1       0       0       0       0       0       0       0       0       0       0       0       
      +0       0       0       0       0
  4555 ;;      Totals:         3       0       0       0       0       0       0       0       0       0       0       0       
      +0       0       0       0       0
  4556 ;;Total ram usage:        3 bytes
  4557 ;; Hardware stack levels used: 1
  4558 ;; Hardware stack levels required when called: 3
  4559 ;; This function calls:
  4560 ;;		Nothing
  4561 ;; This function is called by:
  4562 ;;		_hal_timer0_initialize
  4563 ;; This function uses a non-reentrant model
  4564 ;;
  4565                           
  4566                           	psect	text18
  4567  0028A6                     __ptext18:
  4568                           	callstack 0
  4569  0028A6                     _hal_timer0_select_8bit_or_16bit_mode:
  4570                           	callstack 26
  4571  0028A6                     
  4572                           ;MCAL_Layer/Timer0/hal_timer0.c: 190:     if(timer0 != ((void*)0)){
  4573  0028A6  5038               	movf	hal_timer0_select_8bit_or_16bit_mode@timer0^0,w,c
  4574  0028A8  1039               	iorwf	(hal_timer0_select_8bit_or_16bit_mode@timer0+1)^0,w,c
  4575  0028AA  B4D8               	btfsc	status,2,c
  4576  0028AC  EF5A  F014         	goto	u8251
  4577  0028B0  EF5C  F014         	goto	u8250
  4578  0028B4                     u8251:
  4579  0028B4  EF7E  F014         	goto	l9052
  4580  0028B8                     u8250:
  4581  0028B8                     
  4582                           ;MCAL_Layer/Timer0/hal_timer0.c: 192:         if(timer0->register_size == TIMER0_REGISTE
      +                          R_8BIT){
  4583  0028B8  EE20 F003          	lfsr	2,3
  4584  0028BC  5038               	movf	hal_timer0_select_8bit_or_16bit_mode@timer0^0,w,c
  4585  0028BE  26D9               	addwf	fsr2l,f,c
  4586  0028C0  5039               	movf	(hal_timer0_select_8bit_or_16bit_mode@timer0+1)^0,w,c
  4587  0028C2  22DA               	addwfc	fsr2h,f,c
  4588  0028C4  04DE               	decf	postinc2,w,c
  4589  0028C6  A4D8               	btfss	status,2,c
  4590  0028C8  EF68  F014         	goto	u8261
  4591  0028CC  EF6A  F014         	goto	u8260
  4592  0028D0                     u8261:
  4593  0028D0  EF6D  F014         	goto	l9048
  4594  0028D4                     u8260:
  4595  0028D4                     
  4596                           ;MCAL_Layer/Timer0/hal_timer0.c: 193:             (T0CONbits.T08BIT = 1);
  4597  0028D4  8CD5               	bsf	213,6,c	;volatile
  4598                           
  4599                           ;MCAL_Layer/Timer0/hal_timer0.c: 194:         }
  4600  0028D6  EF7E  F014         	goto	l1282
  4601  0028DA                     l9048:
  4602  0028DA  EE20 F003          	lfsr	2,3
  4603  0028DE  5038               	movf	hal_timer0_select_8bit_or_16bit_mode@timer0^0,w,c
  4604  0028E0  26D9               	addwf	fsr2l,f,c
  4605  0028E2  5039               	movf	(hal_timer0_select_8bit_or_16bit_mode@timer0+1)^0,w,c
  4606  0028E4  22DA               	addwfc	fsr2h,f,c
  4607  0028E6  50DF               	movf	indf2,w,c
  4608  0028E8  A4D8               	btfss	status,2,c
  4609  0028EA  EF79  F014         	goto	u8271
  4610  0028EE  EF7B  F014         	goto	u8270
  4611  0028F2                     u8271:
  4612  0028F2  EF7E  F014         	goto	l9052
  4613  0028F6                     u8270:
  4614  0028F6                     
  4615                           ;MCAL_Layer/Timer0/hal_timer0.c: 196:             (T0CONbits.T08BIT = 0);
  4616  0028F6  9CD5               	bcf	213,6,c	;volatile
  4617                           
  4618                           ;MCAL_Layer/Timer0/hal_timer0.c: 197:         }
  4619  0028F8  EF7E  F014         	goto	l1282
  4620  0028FC                     l9052:
  4621  0028FC                     l1282:
  4622  0028FC  0012               	return		;funcret
  4623  0028FE                     __end_of_hal_timer0_select_8bit_or_16bit_mode:
  4624                           	callstack 0
  4625                           
  4626 ;; *************** function _hal_timer0_interrupt_handler_init *****************
  4627 ;; Defined at:
  4628 ;;		line 395 in file "MCAL_Layer/Timer0/hal_timer0.c"
  4629 ;; Parameters:    Size  Location     Type
  4630 ;;  timer0          2    3[COMRAM] PTR const struct .
  4631 ;;		 -> tmr0(10), 
  4632 ;; Auto vars:     Size  Location     Type
  4633 ;;  status          1    0        unsigned char 
  4634 ;; Return value:  Size  Location     Type
  4635 ;;                  1    wreg      unsigned char 
  4636 ;; Registers used:
  4637 ;;		wreg, fsr2l, fsr2h, status,2, status,0
  4638 ;; Tracked objects:
  4639 ;;		On entry : 0/0
  4640 ;;		On exit  : 0/0
  4641 ;;		Unchanged: 0/0
  4642 ;; Data sizes:     COMRAM   BANK0   BANK1   BANK2   BANK3   BANK4   BANK5   BANK6   BANK7   BANK8   BANK9  BANK10  BANK1
      +1  BANK12  BANK13  BANK14  BANK15
  4643 ;;      Params:         2       0       0       0       0       0       0       0       0       0       0       0       
      +0       0       0       0       0
  4644 ;;      Locals:         0       0       0       0       0       0       0       0       0       0       0       0       
      +0       0       0       0       0
  4645 ;;      Temps:          0       0       0       0       0       0       0       0       0       0       0       0       
      +0       0       0       0       0
  4646 ;;      Totals:         2       0       0       0       0       0       0       0       0       0       0       0       
      +0       0       0       0       0
  4647 ;;Total ram usage:        2 bytes
  4648 ;; Hardware stack levels used: 1
  4649 ;; Hardware stack levels required when called: 3
  4650 ;; This function calls:
  4651 ;;		Nothing
  4652 ;; This function is called by:
  4653 ;;		_hal_timer0_initialize
  4654 ;; This function uses a non-reentrant model
  4655 ;;
  4656                           
  4657                           	psect	text19
  4658  002A1E                     __ptext19:
  4659                           	callstack 0
  4660  002A1E                     _hal_timer0_interrupt_handler_init:
  4661                           	callstack 26
  4662  002A1E                     
  4663                           ;MCAL_Layer/Timer0/hal_timer0.c: 397:     if(timer0 != ((void*)0)){
  4664  002A1E  5038               	movf	hal_timer0_interrupt_handler_init@timer0^0,w,c
  4665  002A20  1039               	iorwf	(hal_timer0_interrupt_handler_init@timer0+1)^0,w,c
  4666  002A22  B4D8               	btfsc	status,2,c
  4667  002A24  EF16  F015         	goto	u8331
  4668  002A28  EF18  F015         	goto	u8330
  4669  002A2C                     u8331:
  4670  002A2C  EF22  F015         	goto	l9128
  4671  002A30                     u8330:
  4672  002A30                     
  4673                           ;MCAL_Layer/Timer0/hal_timer0.c: 398:         TMR0_InterruptHandler = timer0->TMR0_Handl
      +                          er;
  4674  002A30  C038  FFD9         	movff	hal_timer0_interrupt_handler_init@timer0,fsr2l
  4675  002A34  C039  FFDA         	movff	hal_timer0_interrupt_handler_init@timer0+1,fsr2h
  4676  002A38  CFDE F007          	movff	postinc2,_TMR0_InterruptHandler
  4677  002A3C  CFDD F008          	movff	postdec2,_TMR0_InterruptHandler+1
  4678                           
  4679                           ;MCAL_Layer/Timer0/hal_timer0.c: 399:     }
  4680  002A40  EF22  F015         	goto	l1337
  4681  002A44                     l9128:
  4682  002A44                     l1337:
  4683  002A44  0012               	return		;funcret
  4684  002A46                     __end_of_hal_timer0_interrupt_handler_init:
  4685                           	callstack 0
  4686                           
  4687 ;; *************** function _hal_timer0_interrupt_enable *****************
  4688 ;; Defined at:
  4689 ;;		line 303 in file "MCAL_Layer/Timer0/hal_timer0.c"
  4690 ;; Parameters:    Size  Location     Type
  4691 ;;  timer0          2    3[COMRAM] PTR const struct .
  4692 ;;		 -> tmr0(10), 
  4693 ;; Auto vars:     Size  Location     Type
  4694 ;;  status          1    0        unsigned char 
  4695 ;; Return value:  Size  Location     Type
  4696 ;;                  1    wreg      unsigned char 
  4697 ;; Registers used:
  4698 ;;		wreg, status,2, status,0
  4699 ;; Tracked objects:
  4700 ;;		On entry : 0/0
  4701 ;;		On exit  : 0/0
  4702 ;;		Unchanged: 0/0
  4703 ;; Data sizes:     COMRAM   BANK0   BANK1   BANK2   BANK3   BANK4   BANK5   BANK6   BANK7   BANK8   BANK9  BANK10  BANK1
      +1  BANK12  BANK13  BANK14  BANK15
  4704 ;;      Params:         2       0       0       0       0       0       0       0       0       0       0       0       
      +0       0       0       0       0
  4705 ;;      Locals:         0       0       0       0       0       0       0       0       0       0       0       0       
      +0       0       0       0       0
  4706 ;;      Temps:          0       0       0       0       0       0       0       0       0       0       0       0       
      +0       0       0       0       0
  4707 ;;      Totals:         2       0       0       0       0       0       0       0       0       0       0       0       
      +0       0       0       0       0
  4708 ;;Total ram usage:        2 bytes
  4709 ;; Hardware stack levels used: 1
  4710 ;; Hardware stack levels required when called: 3
  4711 ;; This function calls:
  4712 ;;		Nothing
  4713 ;; This function is called by:
  4714 ;;		_hal_timer0_initialize
  4715 ;;		_main
  4716 ;; This function uses a non-reentrant model
  4717 ;;
  4718                           
  4719                           	psect	text20
  4720  002A46                     __ptext20:
  4721                           	callstack 0
  4722  002A46                     _hal_timer0_interrupt_enable:
  4723                           	callstack 27
  4724  002A46                     
  4725                           ;MCAL_Layer/Timer0/hal_timer0.c: 305:     if(timer0 != ((void*)0)){
  4726  002A46  5038               	movf	hal_timer0_interrupt_enable@timer0^0,w,c
  4727  002A48  1039               	iorwf	(hal_timer0_interrupt_enable@timer0+1)^0,w,c
  4728  002A4A  B4D8               	btfsc	status,2,c
  4729  002A4C  EF2A  F015         	goto	u8341
  4730  002A50  EF2C  F015         	goto	u8340
  4731  002A54                     u8341:
  4732  002A54  EF31  F015         	goto	l9138
  4733  002A58                     u8340:
  4734  002A58                     
  4735                           ;MCAL_Layer/Timer0/hal_timer0.c: 306:         (INTCONbits.TMR0IE = 1);
  4736  002A58  8AF2               	bsf	242,5,c	;volatile
  4737                           
  4738                           ;MCAL_Layer/Timer0/hal_timer0.c: 322:         (INTCONbits.GIE = 1);
  4739  002A5A  8EF2               	bsf	242,7,c	;volatile
  4740                           
  4741                           ;MCAL_Layer/Timer0/hal_timer0.c: 323:         (INTCONbits.PEIE = 1);
  4742  002A5C  8CF2               	bsf	242,6,c	;volatile
  4743                           
  4744                           ;MCAL_Layer/Timer0/hal_timer0.c: 325:     }
  4745  002A5E  EF31  F015         	goto	l1317
  4746  002A62                     l9138:
  4747  002A62                     l1317:
  4748  002A62  0012               	return		;funcret
  4749  002A64                     __end_of_hal_timer0_interrupt_enable:
  4750                           	callstack 0
  4751                           
  4752 ;; *************** function _hal_timer0_enable_prescaler *****************
  4753 ;; Defined at:
  4754 ;;		line 214 in file "MCAL_Layer/Timer0/hal_timer0.c"
  4755 ;; Parameters:    Size  Location     Type
  4756 ;;  timer0          2    3[COMRAM] PTR const struct .
  4757 ;;		 -> tmr0(10), 
  4758 ;; Auto vars:     Size  Location     Type
  4759 ;;  status          1    0        unsigned char 
  4760 ;; Return value:  Size  Location     Type
  4761 ;;                  1    wreg      unsigned char 
  4762 ;; Registers used:
  4763 ;;		wreg, fsr2l, fsr2h, status,2, status,0
  4764 ;; Tracked objects:
  4765 ;;		On entry : 0/0
  4766 ;;		On exit  : 0/0
  4767 ;;		Unchanged: 0/0
  4768 ;; Data sizes:     COMRAM   BANK0   BANK1   BANK2   BANK3   BANK4   BANK5   BANK6   BANK7   BANK8   BANK9  BANK10  BANK1
      +1  BANK12  BANK13  BANK14  BANK15
  4769 ;;      Params:         2       0       0       0       0       0       0       0       0       0       0       0       
      +0       0       0       0       0
  4770 ;;      Locals:         0       0       0       0       0       0       0       0       0       0       0       0       
      +0       0       0       0       0
  4771 ;;      Temps:          0       0       0       0       0       0       0       0       0       0       0       0       
      +0       0       0       0       0
  4772 ;;      Totals:         2       0       0       0       0       0       0       0       0       0       0       0       
      +0       0       0       0       0
  4773 ;;Total ram usage:        2 bytes
  4774 ;; Hardware stack levels used: 1
  4775 ;; Hardware stack levels required when called: 3
  4776 ;; This function calls:
  4777 ;;		Nothing
  4778 ;; This function is called by:
  4779 ;;		_hal_timer0_initialize
  4780 ;; This function uses a non-reentrant model
  4781 ;;
  4782                           
  4783                           	psect	text21
  4784  002984                     __ptext21:
  4785                           	callstack 0
  4786  002984                     _hal_timer0_enable_prescaler:
  4787                           	callstack 26
  4788  002984                     
  4789                           ;MCAL_Layer/Timer0/hal_timer0.c: 216:     if(timer0 != ((void*)0)){
  4790  002984  5038               	movf	hal_timer0_enable_prescaler@timer0^0,w,c
  4791  002986  1039               	iorwf	(hal_timer0_enable_prescaler@timer0+1)^0,w,c
  4792  002988  B4D8               	btfsc	status,2,c
  4793  00298A  EFC9  F014         	goto	u8281
  4794  00298E  EFCB  F014         	goto	u8280
  4795  002992                     u8281:
  4796  002992  EFDC  F014         	goto	l9066
  4797  002996                     u8280:
  4798  002996                     
  4799                           ;MCAL_Layer/Timer0/hal_timer0.c: 217:         if(timer0->prescaler_enable_bit == ((uint8
      +                          _t)0)){
  4800  002996  EE20 F006          	lfsr	2,6
  4801  00299A  5038               	movf	hal_timer0_enable_prescaler@timer0^0,w,c
  4802  00299C  26D9               	addwf	fsr2l,f,c
  4803  00299E  5039               	movf	(hal_timer0_enable_prescaler@timer0+1)^0,w,c
  4804  0029A0  22DA               	addwfc	fsr2h,f,c
  4805  0029A2  50DF               	movf	indf2,w,c
  4806  0029A4  A4D8               	btfss	status,2,c
  4807  0029A6  EFD7  F014         	goto	u8291
  4808  0029AA  EFD9  F014         	goto	u8290
  4809  0029AE                     u8291:
  4810  0029AE  EFDC  F014         	goto	l9066
  4811  0029B2                     u8290:
  4812  0029B2                     
  4813                           ;MCAL_Layer/Timer0/hal_timer0.c: 218:             (T0CONbits.PSA = 0);
  4814  0029B2  96D5               	bcf	213,3,c	;volatile
  4815                           
  4816                           ;MCAL_Layer/Timer0/hal_timer0.c: 219:         }
  4817  0029B4  EFDC  F014         	goto	l1289
  4818  0029B8                     l9066:
  4819  0029B8                     l1289:
  4820  0029B8  0012               	return		;funcret
  4821  0029BA                     __end_of_hal_timer0_enable_prescaler:
  4822                           	callstack 0
  4823                           
  4824 ;; *************** function _hal_timer0_disable_prescaler *****************
  4825 ;; Defined at:
  4826 ;;		line 235 in file "MCAL_Layer/Timer0/hal_timer0.c"
  4827 ;; Parameters:    Size  Location     Type
  4828 ;;  timer0          2    3[COMRAM] PTR const struct .
  4829 ;;		 -> tmr0(10), 
  4830 ;; Auto vars:     Size  Location     Type
  4831 ;;  status          1    0        unsigned char 
  4832 ;; Return value:  Size  Location     Type
  4833 ;;                  1    wreg      unsigned char 
  4834 ;; Registers used:
  4835 ;;		wreg, fsr2l, fsr2h, status,2, status,0
  4836 ;; Tracked objects:
  4837 ;;		On entry : 0/0
  4838 ;;		On exit  : 0/0
  4839 ;;		Unchanged: 0/0
  4840 ;; Data sizes:     COMRAM   BANK0   BANK1   BANK2   BANK3   BANK4   BANK5   BANK6   BANK7   BANK8   BANK9  BANK10  BANK1
      +1  BANK12  BANK13  BANK14  BANK15
  4841 ;;      Params:         2       0       0       0       0       0       0       0       0       0       0       0       
      +0       0       0       0       0
  4842 ;;      Locals:         0       0       0       0       0       0       0       0       0       0       0       0       
      +0       0       0       0       0
  4843 ;;      Temps:          1       0       0       0       0       0       0       0       0       0       0       0       
      +0       0       0       0       0
  4844 ;;      Totals:         3       0       0       0       0       0       0       0       0       0       0       0       
      +0       0       0       0       0
  4845 ;;Total ram usage:        3 bytes
  4846 ;; Hardware stack levels used: 1
  4847 ;; Hardware stack levels required when called: 3
  4848 ;; This function calls:
  4849 ;;		Nothing
  4850 ;; This function is called by:
  4851 ;;		_hal_timer0_initialize
  4852 ;; This function uses a non-reentrant model
  4853 ;;
  4854                           
  4855                           	psect	text22
  4856  0029BA                     __ptext22:
  4857                           	callstack 0
  4858  0029BA                     _hal_timer0_disable_prescaler:
  4859                           	callstack 26
  4860  0029BA                     
  4861                           ;MCAL_Layer/Timer0/hal_timer0.c: 237:     if(timer0 != ((void*)0)){
  4862  0029BA  5038               	movf	hal_timer0_disable_prescaler@timer0^0,w,c
  4863  0029BC  1039               	iorwf	(hal_timer0_disable_prescaler@timer0+1)^0,w,c
  4864  0029BE  B4D8               	btfsc	status,2,c
  4865  0029C0  EFE4  F014         	goto	u8311
  4866  0029C4  EFE6  F014         	goto	u8310
  4867  0029C8                     u8311:
  4868  0029C8  EFF7  F014         	goto	l9116
  4869  0029CC                     u8310:
  4870  0029CC                     
  4871                           ;MCAL_Layer/Timer0/hal_timer0.c: 238:         if(timer0->prescaler_enable_bit == ((uint8
      +                          _t)1)){
  4872  0029CC  EE20 F006          	lfsr	2,6
  4873  0029D0  5038               	movf	hal_timer0_disable_prescaler@timer0^0,w,c
  4874  0029D2  26D9               	addwf	fsr2l,f,c
  4875  0029D4  5039               	movf	(hal_timer0_disable_prescaler@timer0+1)^0,w,c
  4876  0029D6  22DA               	addwfc	fsr2h,f,c
  4877  0029D8  04DE               	decf	postinc2,w,c
  4878  0029DA  A4D8               	btfss	status,2,c
  4879  0029DC  EFF2  F014         	goto	u8321
  4880  0029E0  EFF4  F014         	goto	u8320
  4881  0029E4                     u8321:
  4882  0029E4  EFF7  F014         	goto	l9116
  4883  0029E8                     u8320:
  4884  0029E8                     
  4885                           ;MCAL_Layer/Timer0/hal_timer0.c: 239:             (T0CONbits.PSA = 1);
  4886  0029E8  86D5               	bsf	213,3,c	;volatile
  4887                           
  4888                           ;MCAL_Layer/Timer0/hal_timer0.c: 240:         }
  4889  0029EA  EFF7  F014         	goto	l1296
  4890  0029EE                     l9116:
  4891  0029EE                     l1296:
  4892  0029EE  0012               	return		;funcret
  4893  0029F0                     __end_of_hal_timer0_disable_prescaler:
  4894                           	callstack 0
  4895                           
  4896 ;; *************** function _gpio_port_write_logic *****************
  4897 ;; Defined at:
  4898 ;;		line 216 in file "MCAL_Layer/GPIO/hal_gpio.c"
  4899 ;; Parameters:    Size  Location     Type
  4900 ;;  port            1    wreg     enum E2818
  4901 ;;  logic           1    3[COMRAM] unsigned char 
  4902 ;; Auto vars:     Size  Location     Type
  4903 ;;  port            1    6[COMRAM] enum E2818
  4904 ;;  Status          1    0        unsigned char 
  4905 ;; Return value:  Size  Location     Type
  4906 ;;                  1    wreg      unsigned char 
  4907 ;; Registers used:
  4908 ;;		wreg, fsr2l, fsr2h, status,2, status,0, prodl, prodh
  4909 ;; Tracked objects:
  4910 ;;		On entry : 0/0
  4911 ;;		On exit  : 0/0
  4912 ;;		Unchanged: 0/0
  4913 ;; Data sizes:     COMRAM   BANK0   BANK1   BANK2   BANK3   BANK4   BANK5   BANK6   BANK7   BANK8   BANK9  BANK10  BANK1
      +1  BANK12  BANK13  BANK14  BANK15
  4914 ;;      Params:         1       0       0       0       0       0       0       0       0       0       0       0       
      +0       0       0       0       0
  4915 ;;      Locals:         1       0       0       0       0       0       0       0       0       0       0       0       
      +0       0       0       0       0
  4916 ;;      Temps:          2       0       0       0       0       0       0       0       0       0       0       0       
      +0       0       0       0       0
  4917 ;;      Totals:         4       0       0       0       0       0       0       0       0       0       0       0       
      +0       0       0       0       0
  4918 ;;Total ram usage:        4 bytes
  4919 ;; Hardware stack levels used: 1
  4920 ;; Hardware stack levels required when called: 3
  4921 ;; This function calls:
  4922 ;;		Nothing
  4923 ;; This function is called by:
  4924 ;;		_main
  4925 ;; This function uses a non-reentrant model
  4926 ;;
  4927                           
  4928                           	psect	text23
  4929  002948                     __ptext23:
  4930                           	callstack 0
  4931  002948                     _gpio_port_write_logic:
  4932                           	callstack 27
  4933                           
  4934                           ;incstack = 0
  4935                           ;gpio_port_write_logic@port stored from wreg
  4936  002948  6E3B               	movwf	gpio_port_write_logic@port^0,c
  4937  00294A                     
  4938                           ;MCAL_Layer/GPIO/hal_gpio.c: 219:     if(port > ((uint8)5)-1 ){
  4939  00294A  0E04               	movlw	4
  4940  00294C  643B               	cpfsgt	gpio_port_write_logic@port^0,c
  4941  00294E  EFAB  F014         	goto	u8531
  4942  002952  EFAD  F014         	goto	u8530
  4943  002956                     u8531:
  4944  002956  EFAF  F014         	goto	l9354
  4945  00295A                     u8530:
  4946  00295A                     
  4947                           ;MCAL_Layer/GPIO/hal_gpio.c: 221:     }
  4948  00295A  EFC1  F014         	goto	l809
  4949  00295E                     l9354:
  4950                           
  4951                           ;MCAL_Layer/GPIO/hal_gpio.c: 223:         *lat_registers[port] = logic;
  4952  00295E  503B               	movf	gpio_port_write_logic@port^0,w,c
  4953  002960  0D02               	mullw	2
  4954  002962  0E8A               	movlw	low _lat_registers
  4955  002964  24F3               	addwf	243,w,c
  4956  002966  6ED9               	movwf	fsr2l,c
  4957  002968  0E00               	movlw	high _lat_registers
  4958  00296A  20F4               	addwfc	prodh,w,c
  4959  00296C  6EDA               	movwf	fsr2h,c
  4960  00296E  CFDE F039          	movff	postinc2,??_gpio_port_write_logic
  4961  002972  CFDD F03A          	movff	postdec2,??_gpio_port_write_logic+1
  4962  002976  C039  FFD9         	movff	??_gpio_port_write_logic,fsr2l
  4963  00297A  C03A  FFDA         	movff	??_gpio_port_write_logic+1,fsr2h
  4964  00297E  C038  FFDF         	movff	gpio_port_write_logic@logic,indf2
  4965  002982                     l809:
  4966  002982  0012               	return		;funcret
  4967  002984                     __end_of_gpio_port_write_logic:
  4968                           	callstack 0
  4969                           
  4970 ;; *************** function ___awmod *****************
  4971 ;; Defined at:
  4972 ;;		line 7 in file "C:\Program Files\Microchip\xc8\v2.36\pic\sources\c99\common\awmod.c"
  4973 ;; Parameters:    Size  Location     Type
  4974 ;;  dividend        2    3[COMRAM] int 
  4975 ;;  divisor         2    5[COMRAM] int 
  4976 ;; Auto vars:     Size  Location     Type
  4977 ;;  sign            1    8[COMRAM] unsigned char 
  4978 ;;  counter         1    7[COMRAM] unsigned char 
  4979 ;; Return value:  Size  Location     Type
  4980 ;;                  2    3[COMRAM] int 
  4981 ;; Registers used:
  4982 ;;		wreg, status,2, status,0
  4983 ;; Tracked objects:
  4984 ;;		On entry : 0/0
  4985 ;;		On exit  : 0/0
  4986 ;;		Unchanged: 0/0
  4987 ;; Data sizes:     COMRAM   BANK0   BANK1   BANK2   BANK3   BANK4   BANK5   BANK6   BANK7   BANK8   BANK9  BANK10  BANK1
      +1  BANK12  BANK13  BANK14  BANK15
  4988 ;;      Params:         4       0       0       0       0       0       0       0       0       0       0       0       
      +0       0       0       0       0
  4989 ;;      Locals:         2       0       0       0       0       0       0       0       0       0       0       0       
      +0       0       0       0       0
  4990 ;;      Temps:          0       0       0       0       0       0       0       0       0       0       0       0       
      +0       0       0       0       0
  4991 ;;      Totals:         6       0       0       0       0       0       0       0       0       0       0       0       
      +0       0       0       0       0
  4992 ;;Total ram usage:        6 bytes
  4993 ;; Hardware stack levels used: 1
  4994 ;; Hardware stack levels required when called: 3
  4995 ;; This function calls:
  4996 ;;		Nothing
  4997 ;; This function is called by:
  4998 ;;		_main
  4999 ;; This function uses a non-reentrant model
  5000 ;;
  5001                           
  5002                           	psect	text24
  5003  0023DA                     __ptext24:
  5004                           	callstack 0
  5005  0023DA                     ___awmod:
  5006                           	callstack 27
  5007  0023DA  0E00               	movlw	0
  5008  0023DC  6E3D               	movwf	___awmod@sign^0,c
  5009  0023DE  BE39               	btfsc	(___awmod@dividend+1)^0,7,c
  5010  0023E0  EFF6  F011         	goto	u8640
  5011  0023E4  EFF4  F011         	goto	u8641
  5012  0023E8                     u8641:
  5013  0023E8  EFFC  F011         	goto	l9452
  5014  0023EC                     u8640:
  5015  0023EC  6C38               	negf	___awmod@dividend^0,c
  5016  0023EE  1E39               	comf	(___awmod@dividend+1)^0,f,c
  5017  0023F0  B0D8               	btfsc	status,0,c
  5018  0023F2  2A39               	incf	(___awmod@dividend+1)^0,f,c
  5019  0023F4  0E01               	movlw	1
  5020  0023F6  6E3D               	movwf	___awmod@sign^0,c
  5021  0023F8                     l9452:
  5022  0023F8  BE3B               	btfsc	(___awmod@divisor+1)^0,7,c
  5023  0023FA  EF03  F012         	goto	u8650
  5024  0023FE  EF01  F012         	goto	u8651
  5025  002402                     u8651:
  5026  002402  EF07  F012         	goto	l9456
  5027  002406                     u8650:
  5028  002406  6C3A               	negf	___awmod@divisor^0,c
  5029  002408  1E3B               	comf	(___awmod@divisor+1)^0,f,c
  5030  00240A  B0D8               	btfsc	status,0,c
  5031  00240C  2A3B               	incf	(___awmod@divisor+1)^0,f,c
  5032  00240E                     l9456:
  5033  00240E  503A               	movf	___awmod@divisor^0,w,c
  5034  002410  103B               	iorwf	(___awmod@divisor+1)^0,w,c
  5035  002412  B4D8               	btfsc	status,2,c
  5036  002414  EF0E  F012         	goto	u8661
  5037  002418  EF10  F012         	goto	u8660
  5038  00241C                     u8661:
  5039  00241C  EF34  F012         	goto	l9472
  5040  002420                     u8660:
  5041  002420  0E01               	movlw	1
  5042  002422  6E3C               	movwf	___awmod@counter^0,c
  5043  002424  EF18  F012         	goto	l9462
  5044  002428                     l9460:
  5045  002428  90D8               	bcf	status,0,c
  5046  00242A  363A               	rlcf	___awmod@divisor^0,f,c
  5047  00242C  363B               	rlcf	(___awmod@divisor+1)^0,f,c
  5048  00242E  2A3C               	incf	___awmod@counter^0,f,c
  5049  002430                     l9462:
  5050  002430  AE3B               	btfss	(___awmod@divisor+1)^0,7,c
  5051  002432  EF1D  F012         	goto	u8671
  5052  002436  EF1F  F012         	goto	u8670
  5053  00243A                     u8671:
  5054  00243A  EF14  F012         	goto	l9460
  5055  00243E                     u8670:
  5056  00243E                     l9464:
  5057  00243E  503A               	movf	___awmod@divisor^0,w,c
  5058  002440  5C38               	subwf	___awmod@dividend^0,w,c
  5059  002442  503B               	movf	(___awmod@divisor+1)^0,w,c
  5060  002444  5839               	subwfb	(___awmod@dividend+1)^0,w,c
  5061  002446  A0D8               	btfss	status,0,c
  5062  002448  EF28  F012         	goto	u8681
  5063  00244C  EF2A  F012         	goto	u8680
  5064  002450                     u8681:
  5065  002450  EF2E  F012         	goto	l9468
  5066  002454                     u8680:
  5067  002454  503A               	movf	___awmod@divisor^0,w,c
  5068  002456  5E38               	subwf	___awmod@dividend^0,f,c
  5069  002458  503B               	movf	(___awmod@divisor+1)^0,w,c
  5070  00245A  5A39               	subwfb	(___awmod@dividend+1)^0,f,c
  5071  00245C                     l9468:
  5072  00245C  90D8               	bcf	status,0,c
  5073  00245E  323B               	rrcf	(___awmod@divisor+1)^0,f,c
  5074  002460  323A               	rrcf	___awmod@divisor^0,f,c
  5075  002462  2E3C               	decfsz	___awmod@counter^0,f,c
  5076  002464  EF1F  F012         	goto	l9464
  5077  002468                     l9472:
  5078  002468  503D               	movf	___awmod@sign^0,w,c
  5079  00246A  B4D8               	btfsc	status,2,c
  5080  00246C  EF3A  F012         	goto	u8691
  5081  002470  EF3C  F012         	goto	u8690
  5082  002474                     u8691:
  5083  002474  EF40  F012         	goto	l9476
  5084  002478                     u8690:
  5085  002478  6C38               	negf	___awmod@dividend^0,c
  5086  00247A  1E39               	comf	(___awmod@dividend+1)^0,f,c
  5087  00247C  B0D8               	btfsc	status,0,c
  5088  00247E  2A39               	incf	(___awmod@dividend+1)^0,f,c
  5089  002480                     l9476:
  5090  002480  C038  F038         	movff	___awmod@dividend,?___awmod
  5091  002484  C039  F039         	movff	___awmod@dividend+1,?___awmod+1
  5092  002488  0012               	return		;funcret
  5093  00248A                     __end_of___awmod:
  5094                           	callstack 0
  5095                           
  5096 ;; *************** function ___awdiv *****************
  5097 ;; Defined at:
  5098 ;;		line 7 in file "C:\Program Files\Microchip\xc8\v2.36\pic\sources\c99\common\awdiv.c"
  5099 ;; Parameters:    Size  Location     Type
  5100 ;;  dividend        2    3[COMRAM] int 
  5101 ;;  divisor         2    5[COMRAM] int 
  5102 ;; Auto vars:     Size  Location     Type
  5103 ;;  quotient        2    9[COMRAM] int 
  5104 ;;  sign            1    8[COMRAM] unsigned char 
  5105 ;;  counter         1    7[COMRAM] unsigned char 
  5106 ;; Return value:  Size  Location     Type
  5107 ;;                  2    3[COMRAM] int 
  5108 ;; Registers used:
  5109 ;;		wreg, status,2, status,0
  5110 ;; Tracked objects:
  5111 ;;		On entry : 0/0
  5112 ;;		On exit  : 0/0
  5113 ;;		Unchanged: 0/0
  5114 ;; Data sizes:     COMRAM   BANK0   BANK1   BANK2   BANK3   BANK4   BANK5   BANK6   BANK7   BANK8   BANK9  BANK10  BANK1
      +1  BANK12  BANK13  BANK14  BANK15
  5115 ;;      Params:         4       0       0       0       0       0       0       0       0       0       0       0       
      +0       0       0       0       0
  5116 ;;      Locals:         4       0       0       0       0       0       0       0       0       0       0       0       
      +0       0       0       0       0
  5117 ;;      Temps:          0       0       0       0       0       0       0       0       0       0       0       0       
      +0       0       0       0       0
  5118 ;;      Totals:         8       0       0       0       0       0       0       0       0       0       0       0       
      +0       0       0       0       0
  5119 ;;Total ram usage:        8 bytes
  5120 ;; Hardware stack levels used: 1
  5121 ;; Hardware stack levels required when called: 3
  5122 ;; This function calls:
  5123 ;;		Nothing
  5124 ;; This function is called by:
  5125 ;;		_main
  5126 ;; This function uses a non-reentrant model
  5127 ;;
  5128                           
  5129                           	psect	text25
  5130  0020F4                     __ptext25:
  5131                           	callstack 0
  5132  0020F4                     ___awdiv:
  5133                           	callstack 27
  5134  0020F4  0E00               	movlw	0
  5135  0020F6  6E3D               	movwf	___awdiv@sign^0,c
  5136  0020F8  BE3B               	btfsc	(___awdiv@divisor+1)^0,7,c
  5137  0020FA  EF83  F010         	goto	u8580
  5138  0020FE  EF81  F010         	goto	u8581
  5139  002102                     u8581:
  5140  002102  EF89  F010         	goto	l9408
  5141  002106                     u8580:
  5142  002106  6C3A               	negf	___awdiv@divisor^0,c
  5143  002108  1E3B               	comf	(___awdiv@divisor+1)^0,f,c
  5144  00210A  B0D8               	btfsc	status,0,c
  5145  00210C  2A3B               	incf	(___awdiv@divisor+1)^0,f,c
  5146  00210E  0E01               	movlw	1
  5147  002110  6E3D               	movwf	___awdiv@sign^0,c
  5148  002112                     l9408:
  5149  002112  BE39               	btfsc	(___awdiv@dividend+1)^0,7,c
  5150  002114  EF90  F010         	goto	u8590
  5151  002118  EF8E  F010         	goto	u8591
  5152  00211C                     u8591:
  5153  00211C  EF96  F010         	goto	l9414
  5154  002120                     u8590:
  5155  002120  6C38               	negf	___awdiv@dividend^0,c
  5156  002122  1E39               	comf	(___awdiv@dividend+1)^0,f,c
  5157  002124  B0D8               	btfsc	status,0,c
  5158  002126  2A39               	incf	(___awdiv@dividend+1)^0,f,c
  5159  002128  0E01               	movlw	1
  5160  00212A  1A3D               	xorwf	___awdiv@sign^0,f,c
  5161  00212C                     l9414:
  5162  00212C  0E00               	movlw	0
  5163  00212E  6E3F               	movwf	(___awdiv@quotient+1)^0,c
  5164  002130  0E00               	movlw	0
  5165  002132  6E3E               	movwf	___awdiv@quotient^0,c
  5166  002134  503A               	movf	___awdiv@divisor^0,w,c
  5167  002136  103B               	iorwf	(___awdiv@divisor+1)^0,w,c
  5168  002138  B4D8               	btfsc	status,2,c
  5169  00213A  EFA1  F010         	goto	u8601
  5170  00213E  EFA3  F010         	goto	u8600
  5171  002142                     u8601:
  5172  002142  EFCB  F010         	goto	l9436
  5173  002146                     u8600:
  5174  002146  0E01               	movlw	1
  5175  002148  6E3C               	movwf	___awdiv@counter^0,c
  5176  00214A  EFAB  F010         	goto	l9422
  5177  00214E                     l9420:
  5178  00214E  90D8               	bcf	status,0,c
  5179  002150  363A               	rlcf	___awdiv@divisor^0,f,c
  5180  002152  363B               	rlcf	(___awdiv@divisor+1)^0,f,c
  5181  002154  2A3C               	incf	___awdiv@counter^0,f,c
  5182  002156                     l9422:
  5183  002156  AE3B               	btfss	(___awdiv@divisor+1)^0,7,c
  5184  002158  EFB0  F010         	goto	u8611
  5185  00215C  EFB2  F010         	goto	u8610
  5186  002160                     u8611:
  5187  002160  EFA7  F010         	goto	l9420
  5188  002164                     u8610:
  5189  002164                     l9424:
  5190  002164  90D8               	bcf	status,0,c
  5191  002166  363E               	rlcf	___awdiv@quotient^0,f,c
  5192  002168  363F               	rlcf	(___awdiv@quotient+1)^0,f,c
  5193  00216A  503A               	movf	___awdiv@divisor^0,w,c
  5194  00216C  5C38               	subwf	___awdiv@dividend^0,w,c
  5195  00216E  503B               	movf	(___awdiv@divisor+1)^0,w,c
  5196  002170  5839               	subwfb	(___awdiv@dividend+1)^0,w,c
  5197  002172  A0D8               	btfss	status,0,c
  5198  002174  EFBE  F010         	goto	u8621
  5199  002178  EFC0  F010         	goto	u8620
  5200  00217C                     u8621:
  5201  00217C  EFC5  F010         	goto	l9432
  5202  002180                     u8620:
  5203  002180  503A               	movf	___awdiv@divisor^0,w,c
  5204  002182  5E38               	subwf	___awdiv@dividend^0,f,c
  5205  002184  503B               	movf	(___awdiv@divisor+1)^0,w,c
  5206  002186  5A39               	subwfb	(___awdiv@dividend+1)^0,f,c
  5207  002188  803E               	bsf	___awdiv@quotient^0,0,c
  5208  00218A                     l9432:
  5209  00218A  90D8               	bcf	status,0,c
  5210  00218C  323B               	rrcf	(___awdiv@divisor+1)^0,f,c
  5211  00218E  323A               	rrcf	___awdiv@divisor^0,f,c
  5212  002190  2E3C               	decfsz	___awdiv@counter^0,f,c
  5213  002192  EFB2  F010         	goto	l9424
  5214  002196                     l9436:
  5215  002196  503D               	movf	___awdiv@sign^0,w,c
  5216  002198  B4D8               	btfsc	status,2,c
  5217  00219A  EFD1  F010         	goto	u8631
  5218  00219E  EFD3  F010         	goto	u8630
  5219  0021A2                     u8631:
  5220  0021A2  EFD7  F010         	goto	l9440
  5221  0021A6                     u8630:
  5222  0021A6  6C3E               	negf	___awdiv@quotient^0,c
  5223  0021A8  1E3F               	comf	(___awdiv@quotient+1)^0,f,c
  5224  0021AA  B0D8               	btfsc	status,0,c
  5225  0021AC  2A3F               	incf	(___awdiv@quotient+1)^0,f,c
  5226  0021AE                     l9440:
  5227  0021AE  C03E  F038         	movff	___awdiv@quotient,?___awdiv
  5228  0021B2  C03F  F039         	movff	___awdiv@quotient+1,?___awdiv+1
  5229  0021B6  0012               	return		;funcret
  5230  0021B8                     __end_of___awdiv:
  5231                           	callstack 0
  5232                           
  5233 ;; *************** function _InterruptManager *****************
  5234 ;; Defined at:
  5235 ;;		line 42 in file "MCAL_Layer/Interrupt/mcal_interrupt_manager.c"
  5236 ;; Parameters:    Size  Location     Type
  5237 ;;		None
  5238 ;; Auto vars:     Size  Location     Type
  5239 ;;		None
  5240 ;; Return value:  Size  Location     Type
  5241 ;;                  1    wreg      void 
  5242 ;; Registers used:
  5243 ;;		wreg, status,2, status,0, pcl, pclath, pclatu, tosl, cstack
  5244 ;; Tracked objects:
  5245 ;;		On entry : 0/0
  5246 ;;		On exit  : 0/0
  5247 ;;		Unchanged: 0/0
  5248 ;; Data sizes:     COMRAM   BANK0   BANK1   BANK2   BANK3   BANK4   BANK5   BANK6   BANK7   BANK8   BANK9  BANK10  BANK1
      +1  BANK12  BANK13  BANK14  BANK15
  5249 ;;      Params:         0       0       0       0       0       0       0       0       0       0       0       0       
      +0       0       0       0       0
  5250 ;;      Locals:         0       0       0       0       0       0       0       0       0       0       0       0       
      +0       0       0       0       0
  5251 ;;      Temps:          2       0       0       0       0       0       0       0       0       0       0       0       
      +0       0       0       0       0
  5252 ;;      Totals:         2       0       0       0       0       0       0       0       0       0       0       0       
      +0       0       0       0       0
  5253 ;;Total ram usage:        2 bytes
  5254 ;; Hardware stack levels used: 1
  5255 ;; Hardware stack levels required when called: 2
  5256 ;; This function calls:
  5257 ;;		_ADC_ISR
  5258 ;;		_CCP1_ISR
  5259 ;;		_CCP2_ISR
  5260 ;;		_EUSART_TX_Isr
  5261 ;;		_INT0_ISR
  5262 ;;		_INT1_ISR
  5263 ;;		_INT2_ISR
  5264 ;;		_RB4_ISR
  5265 ;;		_RB5_ISR
  5266 ;;		_RB6_ISR
  5267 ;;		_RB7_ISR
  5268 ;;		_Timer0_ISR
  5269 ;;		_Timer1_ISR
  5270 ;;		_Timer2_ISR
  5271 ;;		_Timer3_ISR
  5272 ;; This function is called by:
  5273 ;;		Interrupt level 2
  5274 ;; This function uses a non-reentrant model
  5275 ;;
  5276                           
  5277                           	psect	intcode
  5278  000008                     __pintcode:
  5279                           	callstack 0
  5280  000008                     _InterruptManager:
  5281                           	callstack 24
  5282                           
  5283                           ;incstack = 0
  5284  000008  826D               	bsf	int$flags,1,c	;set compiler interrupt flag (level 2)
  5285  00000A  ED76  F00B         	call	int_func,f	;refresh shadow registers
  5286                           
  5287                           	psect	intcode_body
  5288  0016EC                     __pintcode_body:
  5289                           	callstack 24
  5290  0016EC                     int_func:
  5291                           	callstack 24
  5292  0016EC  0006               	pop		; remove dummy address from shadow register refresh
  5293  0016EE  CFFA F036          	movff	pclath,??_InterruptManager
  5294  0016F2  CFFB F037          	movff	pclatu,??_InterruptManager+1
  5295  0016F6                     
  5296                           ;MCAL_Layer/Interrupt/mcal_interrupt_manager.c: 44:     if((INTCONbits.INT0IE == 1)&&(IN
      +                          TCONbits.INT0IF == 1)){
  5297  0016F6  A8F2               	btfss	242,4,c	;volatile
  5298  0016F8  EF80  F00B         	goto	i2u646_41
  5299  0016FC  EF82  F00B         	goto	i2u646_40
  5300  001700                     i2u646_41:
  5301  001700  EF8B  F00B         	goto	i2l7854
  5302  001704                     i2u646_40:
  5303  001704  A2F2               	btfss	242,1,c	;volatile
  5304  001706  EF87  F00B         	goto	i2u647_41
  5305  00170A  EF89  F00B         	goto	i2u647_40
  5306  00170E                     i2u647_41:
  5307  00170E  EF8B  F00B         	goto	i2l7854
  5308  001712                     i2u647_40:
  5309  001712                     
  5310                           ;MCAL_Layer/Interrupt/mcal_interrupt_manager.c: 45:         INT0_ISR();
  5311  001712  EC91  F015         	call	_INT0_ISR	;wreg free
  5312  001716                     i2l7854:
  5313                           
  5314                           ;MCAL_Layer/Interrupt/mcal_interrupt_manager.c: 47:     if((INTCON3bits.INT1IE == 1)&&(I
      +                          NTCON3bits.INT1IF == 1)){
  5315  001716  A6F0               	btfss	240,3,c	;volatile
  5316  001718  EF90  F00B         	goto	i2u648_41
  5317  00171C  EF92  F00B         	goto	i2u648_40
  5318  001720                     i2u648_41:
  5319  001720  EF9B  F00B         	goto	i2l7860
  5320  001724                     i2u648_40:
  5321  001724  A0F0               	btfss	240,0,c	;volatile
  5322  001726  EF97  F00B         	goto	i2u649_41
  5323  00172A  EF99  F00B         	goto	i2u649_40
  5324  00172E                     i2u649_41:
  5325  00172E  EF9B  F00B         	goto	i2l7860
  5326  001732                     i2u649_40:
  5327  001732                     
  5328                           ;MCAL_Layer/Interrupt/mcal_interrupt_manager.c: 48:         INT1_ISR();
  5329  001732  EC8F  F015         	call	_INT1_ISR	;wreg free
  5330  001736                     i2l7860:
  5331                           
  5332                           ;MCAL_Layer/Interrupt/mcal_interrupt_manager.c: 50:     if((INTCON3bits.INT2IE == 1)&&(I
      +                          NTCON3bits.INT2IF == 1)){
  5333  001736  A8F0               	btfss	240,4,c	;volatile
  5334  001738  EFA0  F00B         	goto	i2u650_41
  5335  00173C  EFA2  F00B         	goto	i2u650_40
  5336  001740                     i2u650_41:
  5337  001740  EFAB  F00B         	goto	i2l7866
  5338  001744                     i2u650_40:
  5339  001744  A2F0               	btfss	240,1,c	;volatile
  5340  001746  EFA7  F00B         	goto	i2u651_41
  5341  00174A  EFA9  F00B         	goto	i2u651_40
  5342  00174E                     i2u651_41:
  5343  00174E  EFAB  F00B         	goto	i2l7866
  5344  001752                     i2u651_40:
  5345  001752                     
  5346                           ;MCAL_Layer/Interrupt/mcal_interrupt_manager.c: 51:         INT2_ISR();
  5347  001752  EC8D  F015         	call	_INT2_ISR	;wreg free
  5348  001756                     i2l7866:
  5349                           
  5350                           ;MCAL_Layer/Interrupt/mcal_interrupt_manager.c: 53:     if((INTCONbits.RBIE == 1) && (IN
      +                          TCONbits.RBIF == 1)&&(PORTBbits.RB4 == HIGH) && (RB4_Flag == 1)){
  5351  001756  A6F2               	btfss	242,3,c	;volatile
  5352  001758  EFB0  F00B         	goto	i2u652_41
  5353  00175C  EFB2  F00B         	goto	i2u652_40
  5354  001760                     i2u652_41:
  5355  001760  EFCD  F00B         	goto	i2l7878
  5356  001764                     i2u652_40:
  5357  001764  A0F2               	btfss	242,0,c	;volatile
  5358  001766  EFB7  F00B         	goto	i2u653_41
  5359  00176A  EFB9  F00B         	goto	i2u653_40
  5360  00176E                     i2u653_41:
  5361  00176E  EFCD  F00B         	goto	i2l7878
  5362  001772                     i2u653_40:
  5363  001772  A881               	btfss	129,4,c	;volatile
  5364  001774  EFBE  F00B         	goto	i2u654_41
  5365  001778  EFC0  F00B         	goto	i2u654_40
  5366  00177C                     i2u654_41:
  5367  00177C  EFCD  F00B         	goto	i2l7878
  5368  001780                     i2u654_40:
  5369  001780  045F               	decf	_RB4_Flag^0,w,c
  5370  001782  A4D8               	btfss	status,2,c
  5371  001784  EFC6  F00B         	goto	i2u655_41
  5372  001788  EFC8  F00B         	goto	i2u655_40
  5373  00178C                     i2u655_41:
  5374  00178C  EFCD  F00B         	goto	i2l7878
  5375  001790                     i2u655_40:
  5376  001790                     
  5377                           ;MCAL_Layer/Interrupt/mcal_interrupt_manager.c: 54:         RB4_Flag = 0;
  5378  001790  0E00               	movlw	0
  5379  001792  6E5F               	movwf	_RB4_Flag^0,c
  5380  001794                     
  5381                           ;MCAL_Layer/Interrupt/mcal_interrupt_manager.c: 55:         RB4_ISR(0);
  5382  001794  0E00               	movlw	0
  5383  001796  EC66  F015         	call	_RB4_ISR
  5384  00179A                     i2l7878:
  5385                           
  5386                           ;MCAL_Layer/Interrupt/mcal_interrupt_manager.c: 57:     if((INTCONbits.RBIE == 1) && (IN
      +                          TCONbits.RBIF == 1)&& (PORTBbits.RB4 == LOW) && (RB4_Flag == 0)){
  5387  00179A  A6F2               	btfss	242,3,c	;volatile
  5388  00179C  EFD2  F00B         	goto	i2u656_41
  5389  0017A0  EFD4  F00B         	goto	i2u656_40
  5390  0017A4                     i2u656_41:
  5391  0017A4  EFEF  F00B         	goto	i2l7890
  5392  0017A8                     i2u656_40:
  5393  0017A8  A0F2               	btfss	242,0,c	;volatile
  5394  0017AA  EFD9  F00B         	goto	i2u657_41
  5395  0017AE  EFDB  F00B         	goto	i2u657_40
  5396  0017B2                     i2u657_41:
  5397  0017B2  EFEF  F00B         	goto	i2l7890
  5398  0017B6                     i2u657_40:
  5399  0017B6  B881               	btfsc	129,4,c	;volatile
  5400  0017B8  EFE0  F00B         	goto	i2u658_41
  5401  0017BC  EFE2  F00B         	goto	i2u658_40
  5402  0017C0                     i2u658_41:
  5403  0017C0  EFEF  F00B         	goto	i2l7890
  5404  0017C4                     i2u658_40:
  5405  0017C4  505F               	movf	_RB4_Flag^0,w,c
  5406  0017C6  A4D8               	btfss	status,2,c
  5407  0017C8  EFE8  F00B         	goto	i2u659_41
  5408  0017CC  EFEA  F00B         	goto	i2u659_40
  5409  0017D0                     i2u659_41:
  5410  0017D0  EFEF  F00B         	goto	i2l7890
  5411  0017D4                     i2u659_40:
  5412  0017D4                     
  5413                           ;MCAL_Layer/Interrupt/mcal_interrupt_manager.c: 58:         RB4_Flag = 1;
  5414  0017D4  0E01               	movlw	1
  5415  0017D6  6E5F               	movwf	_RB4_Flag^0,c
  5416  0017D8                     
  5417                           ;MCAL_Layer/Interrupt/mcal_interrupt_manager.c: 59:         RB4_ISR(1);
  5418  0017D8  0E01               	movlw	1
  5419  0017DA  EC66  F015         	call	_RB4_ISR
  5420  0017DE                     i2l7890:
  5421                           
  5422                           ;MCAL_Layer/Interrupt/mcal_interrupt_manager.c: 61:     if((INTCONbits.RBIE == 1) && (IN
      +                          TCONbits.RBIF == 1)&&(PORTBbits.RB5 == HIGH) && (RB5_Flag == 1)){
  5423  0017DE  A6F2               	btfss	242,3,c	;volatile
  5424  0017E0  EFF4  F00B         	goto	i2u660_41
  5425  0017E4  EFF6  F00B         	goto	i2u660_40
  5426  0017E8                     i2u660_41:
  5427  0017E8  EF11  F00C         	goto	i2l7902
  5428  0017EC                     i2u660_40:
  5429  0017EC  A0F2               	btfss	242,0,c	;volatile
  5430  0017EE  EFFB  F00B         	goto	i2u661_41
  5431  0017F2  EFFD  F00B         	goto	i2u661_40
  5432  0017F6                     i2u661_41:
  5433  0017F6  EF11  F00C         	goto	i2l7902
  5434  0017FA                     i2u661_40:
  5435  0017FA  AA81               	btfss	129,5,c	;volatile
  5436  0017FC  EF02  F00C         	goto	i2u662_41
  5437  001800  EF04  F00C         	goto	i2u662_40
  5438  001804                     i2u662_41:
  5439  001804  EF11  F00C         	goto	i2l7902
  5440  001808                     i2u662_40:
  5441  001808  045E               	decf	_RB5_Flag^0,w,c
  5442  00180A  A4D8               	btfss	status,2,c
  5443  00180C  EF0A  F00C         	goto	i2u663_41
  5444  001810  EF0C  F00C         	goto	i2u663_40
  5445  001814                     i2u663_41:
  5446  001814  EF11  F00C         	goto	i2l7902
  5447  001818                     i2u663_40:
  5448  001818                     
  5449                           ;MCAL_Layer/Interrupt/mcal_interrupt_manager.c: 62:         RB5_Flag = 0;
  5450  001818  0E00               	movlw	0
  5451  00181A  6E5E               	movwf	_RB5_Flag^0,c
  5452  00181C                     
  5453                           ;MCAL_Layer/Interrupt/mcal_interrupt_manager.c: 63:         RB5_ISR(0);
  5454  00181C  0E00               	movlw	0
  5455  00181E  EC59  F015         	call	_RB5_ISR
  5456  001822                     i2l7902:
  5457                           
  5458                           ;MCAL_Layer/Interrupt/mcal_interrupt_manager.c: 65:     if((INTCONbits.RBIE == 1) && (IN
      +                          TCONbits.RBIF == 1)&& (PORTBbits.RB5 == LOW) && (RB5_Flag == 0)){
  5459  001822  A6F2               	btfss	242,3,c	;volatile
  5460  001824  EF16  F00C         	goto	i2u664_41
  5461  001828  EF18  F00C         	goto	i2u664_40
  5462  00182C                     i2u664_41:
  5463  00182C  EF33  F00C         	goto	i2l7914
  5464  001830                     i2u664_40:
  5465  001830  A0F2               	btfss	242,0,c	;volatile
  5466  001832  EF1D  F00C         	goto	i2u665_41
  5467  001836  EF1F  F00C         	goto	i2u665_40
  5468  00183A                     i2u665_41:
  5469  00183A  EF33  F00C         	goto	i2l7914
  5470  00183E                     i2u665_40:
  5471  00183E  BA81               	btfsc	129,5,c	;volatile
  5472  001840  EF24  F00C         	goto	i2u666_41
  5473  001844  EF26  F00C         	goto	i2u666_40
  5474  001848                     i2u666_41:
  5475  001848  EF33  F00C         	goto	i2l7914
  5476  00184C                     i2u666_40:
  5477  00184C  505E               	movf	_RB5_Flag^0,w,c
  5478  00184E  A4D8               	btfss	status,2,c
  5479  001850  EF2C  F00C         	goto	i2u667_41
  5480  001854  EF2E  F00C         	goto	i2u667_40
  5481  001858                     i2u667_41:
  5482  001858  EF33  F00C         	goto	i2l7914
  5483  00185C                     i2u667_40:
  5484  00185C                     
  5485                           ;MCAL_Layer/Interrupt/mcal_interrupt_manager.c: 66:         RB5_Flag = 1;
  5486  00185C  0E01               	movlw	1
  5487  00185E  6E5E               	movwf	_RB5_Flag^0,c
  5488  001860                     
  5489                           ;MCAL_Layer/Interrupt/mcal_interrupt_manager.c: 67:        RB5_ISR(1);
  5490  001860  0E01               	movlw	1
  5491  001862  EC59  F015         	call	_RB5_ISR
  5492  001866                     i2l7914:
  5493                           
  5494                           ;MCAL_Layer/Interrupt/mcal_interrupt_manager.c: 69:     if((INTCONbits.RBIE == 1) && (IN
      +                          TCONbits.RBIF == 1)&&(PORTBbits.RB6 == HIGH) && (RB6_Flag == 1)){
  5495  001866  A6F2               	btfss	242,3,c	;volatile
  5496  001868  EF38  F00C         	goto	i2u668_41
  5497  00186C  EF3A  F00C         	goto	i2u668_40
  5498  001870                     i2u668_41:
  5499  001870  EF55  F00C         	goto	i2l7926
  5500  001874                     i2u668_40:
  5501  001874  A0F2               	btfss	242,0,c	;volatile
  5502  001876  EF3F  F00C         	goto	i2u669_41
  5503  00187A  EF41  F00C         	goto	i2u669_40
  5504  00187E                     i2u669_41:
  5505  00187E  EF55  F00C         	goto	i2l7926
  5506  001882                     i2u669_40:
  5507  001882  AC81               	btfss	129,6,c	;volatile
  5508  001884  EF46  F00C         	goto	i2u670_41
  5509  001888  EF48  F00C         	goto	i2u670_40
  5510  00188C                     i2u670_41:
  5511  00188C  EF55  F00C         	goto	i2l7926
  5512  001890                     i2u670_40:
  5513  001890  045D               	decf	_RB6_Flag^0,w,c
  5514  001892  A4D8               	btfss	status,2,c
  5515  001894  EF4E  F00C         	goto	i2u671_41
  5516  001898  EF50  F00C         	goto	i2u671_40
  5517  00189C                     i2u671_41:
  5518  00189C  EF55  F00C         	goto	i2l7926
  5519  0018A0                     i2u671_40:
  5520  0018A0                     
  5521                           ;MCAL_Layer/Interrupt/mcal_interrupt_manager.c: 70:         RB6_Flag = 0;
  5522  0018A0  0E00               	movlw	0
  5523  0018A2  6E5D               	movwf	_RB6_Flag^0,c
  5524  0018A4                     
  5525                           ;MCAL_Layer/Interrupt/mcal_interrupt_manager.c: 71:         RB6_ISR(0);
  5526  0018A4  0E00               	movlw	0
  5527  0018A6  EC4C  F015         	call	_RB6_ISR
  5528  0018AA                     i2l7926:
  5529                           
  5530                           ;MCAL_Layer/Interrupt/mcal_interrupt_manager.c: 73:     if((INTCONbits.RBIE == 1) && (IN
      +                          TCONbits.RBIF == 1)&& (PORTBbits.RB6 == LOW) && (RB6_Flag == 0)){
  5531  0018AA  A6F2               	btfss	242,3,c	;volatile
  5532  0018AC  EF5A  F00C         	goto	i2u672_41
  5533  0018B0  EF5C  F00C         	goto	i2u672_40
  5534  0018B4                     i2u672_41:
  5535  0018B4  EF77  F00C         	goto	i2l7938
  5536  0018B8                     i2u672_40:
  5537  0018B8  A0F2               	btfss	242,0,c	;volatile
  5538  0018BA  EF61  F00C         	goto	i2u673_41
  5539  0018BE  EF63  F00C         	goto	i2u673_40
  5540  0018C2                     i2u673_41:
  5541  0018C2  EF77  F00C         	goto	i2l7938
  5542  0018C6                     i2u673_40:
  5543  0018C6  BC81               	btfsc	129,6,c	;volatile
  5544  0018C8  EF68  F00C         	goto	i2u674_41
  5545  0018CC  EF6A  F00C         	goto	i2u674_40
  5546  0018D0                     i2u674_41:
  5547  0018D0  EF77  F00C         	goto	i2l7938
  5548  0018D4                     i2u674_40:
  5549  0018D4  505D               	movf	_RB6_Flag^0,w,c
  5550  0018D6  A4D8               	btfss	status,2,c
  5551  0018D8  EF70  F00C         	goto	i2u675_41
  5552  0018DC  EF72  F00C         	goto	i2u675_40
  5553  0018E0                     i2u675_41:
  5554  0018E0  EF77  F00C         	goto	i2l7938
  5555  0018E4                     i2u675_40:
  5556  0018E4                     
  5557                           ;MCAL_Layer/Interrupt/mcal_interrupt_manager.c: 74:         RB6_Flag = 1;
  5558  0018E4  0E01               	movlw	1
  5559  0018E6  6E5D               	movwf	_RB6_Flag^0,c
  5560  0018E8                     
  5561                           ;MCAL_Layer/Interrupt/mcal_interrupt_manager.c: 75:         RB6_ISR(1);
  5562  0018E8  0E01               	movlw	1
  5563  0018EA  EC4C  F015         	call	_RB6_ISR
  5564  0018EE                     i2l7938:
  5565                           
  5566                           ;MCAL_Layer/Interrupt/mcal_interrupt_manager.c: 77:     if((INTCONbits.RBIE == 1) && (IN
      +                          TCONbits.RBIF == 1)&&(PORTBbits.RB7 == HIGH) && (RB7_Flag == 1)){
  5567  0018EE  A6F2               	btfss	242,3,c	;volatile
  5568  0018F0  EF7C  F00C         	goto	i2u676_41
  5569  0018F4  EF7E  F00C         	goto	i2u676_40
  5570  0018F8                     i2u676_41:
  5571  0018F8  EF99  F00C         	goto	i2l7950
  5572  0018FC                     i2u676_40:
  5573  0018FC  A0F2               	btfss	242,0,c	;volatile
  5574  0018FE  EF83  F00C         	goto	i2u677_41
  5575  001902  EF85  F00C         	goto	i2u677_40
  5576  001906                     i2u677_41:
  5577  001906  EF99  F00C         	goto	i2l7950
  5578  00190A                     i2u677_40:
  5579  00190A  AE81               	btfss	129,7,c	;volatile
  5580  00190C  EF8A  F00C         	goto	i2u678_41
  5581  001910  EF8C  F00C         	goto	i2u678_40
  5582  001914                     i2u678_41:
  5583  001914  EF99  F00C         	goto	i2l7950
  5584  001918                     i2u678_40:
  5585  001918  045C               	decf	_RB7_Flag^0,w,c
  5586  00191A  A4D8               	btfss	status,2,c
  5587  00191C  EF92  F00C         	goto	i2u679_41
  5588  001920  EF94  F00C         	goto	i2u679_40
  5589  001924                     i2u679_41:
  5590  001924  EF99  F00C         	goto	i2l7950
  5591  001928                     i2u679_40:
  5592  001928                     
  5593                           ;MCAL_Layer/Interrupt/mcal_interrupt_manager.c: 78:         RB7_Flag = 0;
  5594  001928  0E00               	movlw	0
  5595  00192A  6E5C               	movwf	_RB7_Flag^0,c
  5596  00192C                     
  5597                           ;MCAL_Layer/Interrupt/mcal_interrupt_manager.c: 79:         RB7_ISR(0);
  5598  00192C  0E00               	movlw	0
  5599  00192E  EC3F  F015         	call	_RB7_ISR
  5600  001932                     i2l7950:
  5601                           
  5602                           ;MCAL_Layer/Interrupt/mcal_interrupt_manager.c: 81:     if((INTCONbits.RBIE == 1) && (IN
      +                          TCONbits.RBIF == 1)&& (PORTBbits.RB7 == LOW) && (RB7_Flag == 0)){
  5603  001932  A6F2               	btfss	242,3,c	;volatile
  5604  001934  EF9E  F00C         	goto	i2u680_41
  5605  001938  EFA0  F00C         	goto	i2u680_40
  5606  00193C                     i2u680_41:
  5607  00193C  EFBB  F00C         	goto	i2l7962
  5608  001940                     i2u680_40:
  5609  001940  A0F2               	btfss	242,0,c	;volatile
  5610  001942  EFA5  F00C         	goto	i2u681_41
  5611  001946  EFA7  F00C         	goto	i2u681_40
  5612  00194A                     i2u681_41:
  5613  00194A  EFBB  F00C         	goto	i2l7962
  5614  00194E                     i2u681_40:
  5615  00194E  BE81               	btfsc	129,7,c	;volatile
  5616  001950  EFAC  F00C         	goto	i2u682_41
  5617  001954  EFAE  F00C         	goto	i2u682_40
  5618  001958                     i2u682_41:
  5619  001958  EFBB  F00C         	goto	i2l7962
  5620  00195C                     i2u682_40:
  5621  00195C  505C               	movf	_RB7_Flag^0,w,c
  5622  00195E  A4D8               	btfss	status,2,c
  5623  001960  EFB4  F00C         	goto	i2u683_41
  5624  001964  EFB6  F00C         	goto	i2u683_40
  5625  001968                     i2u683_41:
  5626  001968  EFBB  F00C         	goto	i2l7962
  5627  00196C                     i2u683_40:
  5628  00196C                     
  5629                           ;MCAL_Layer/Interrupt/mcal_interrupt_manager.c: 82:         RB7_Flag = 1;
  5630  00196C  0E01               	movlw	1
  5631  00196E  6E5C               	movwf	_RB7_Flag^0,c
  5632  001970                     
  5633                           ;MCAL_Layer/Interrupt/mcal_interrupt_manager.c: 83:         RB7_ISR(1);
  5634  001970  0E01               	movlw	1
  5635  001972  EC3F  F015         	call	_RB7_ISR
  5636  001976                     i2l7962:
  5637                           
  5638                           ;MCAL_Layer/Interrupt/mcal_interrupt_manager.c: 85:     if((PIE1bits.ADIE == 1) && (PIR1
      +                          bits.ADIF == 1)){
  5639  001976  AC9D               	btfss	157,6,c	;volatile
  5640  001978  EFC0  F00C         	goto	i2u684_41
  5641  00197C  EFC2  F00C         	goto	i2u684_40
  5642  001980                     i2u684_41:
  5643  001980  EFCB  F00C         	goto	i2l7968
  5644  001984                     i2u684_40:
  5645  001984  AC9E               	btfss	158,6,c	;volatile
  5646  001986  EFC7  F00C         	goto	i2u685_41
  5647  00198A  EFC9  F00C         	goto	i2u685_40
  5648  00198E                     i2u685_41:
  5649  00198E  EFCB  F00C         	goto	i2l7968
  5650  001992                     i2u685_40:
  5651  001992                     
  5652                           ;MCAL_Layer/Interrupt/mcal_interrupt_manager.c: 86:         ADC_ISR();
  5653  001992  EC97  F015         	call	_ADC_ISR	;wreg free
  5654  001996                     i2l7968:
  5655                           
  5656                           ;MCAL_Layer/Interrupt/mcal_interrupt_manager.c: 88:     if((1 == INTCONbits.TMR0IE) && (
      +                          1 == INTCONbits.TMR0IF)){
  5657  001996  AAF2               	btfss	242,5,c	;volatile
  5658  001998  EFD0  F00C         	goto	i2u686_41
  5659  00199C  EFD2  F00C         	goto	i2u686_40
  5660  0019A0                     i2u686_41:
  5661  0019A0  EFDB  F00C         	goto	i2l7974
  5662  0019A4                     i2u686_40:
  5663  0019A4  A4F2               	btfss	242,2,c	;volatile
  5664  0019A6  EFD7  F00C         	goto	i2u687_41
  5665  0019AA  EFD9  F00C         	goto	i2u687_40
  5666  0019AE                     i2u687_41:
  5667  0019AE  EFDB  F00C         	goto	i2l7974
  5668  0019B2                     i2u687_40:
  5669  0019B2                     
  5670                           ;MCAL_Layer/Interrupt/mcal_interrupt_manager.c: 89:         Timer0_ISR();
  5671  0019B2  ECF8  F014         	call	_Timer0_ISR	;wreg free
  5672  0019B6                     i2l7974:
  5673                           
  5674                           ;MCAL_Layer/Interrupt/mcal_interrupt_manager.c: 91:     if((1 == PIE1bits.TMR1IE) && (1 
      +                          == PIR1bits.TMR1IF)){
  5675  0019B6  A09D               	btfss	157,0,c	;volatile
  5676  0019B8  EFE0  F00C         	goto	i2u688_41
  5677  0019BC  EFE2  F00C         	goto	i2u688_40
  5678  0019C0                     i2u688_41:
  5679  0019C0  EFEB  F00C         	goto	i2l7980
  5680  0019C4                     i2u688_40:
  5681  0019C4  A09E               	btfss	158,0,c	;volatile
  5682  0019C6  EFE7  F00C         	goto	i2u689_41
  5683  0019CA  EFE9  F00C         	goto	i2u689_40
  5684  0019CE                     i2u689_41:
  5685  0019CE  EFEB  F00C         	goto	i2l7980
  5686  0019D2                     i2u689_40:
  5687  0019D2                     
  5688                           ;MCAL_Layer/Interrupt/mcal_interrupt_manager.c: 92:         Timer1_ISR();
  5689  0019D2  EC83  F015         	call	_Timer1_ISR	;wreg free
  5690  0019D6                     i2l7980:
  5691                           
  5692                           ;MCAL_Layer/Interrupt/mcal_interrupt_manager.c: 94:     if((1 == PIE1bits.TMR2IE) && (1 
      +                          == PIR1bits.TMR2IF)){
  5693  0019D6  A29D               	btfss	157,1,c	;volatile
  5694  0019D8  EFF0  F00C         	goto	i2u690_41
  5695  0019DC  EFF2  F00C         	goto	i2u690_40
  5696  0019E0                     i2u690_41:
  5697  0019E0  EFFB  F00C         	goto	i2l7986
  5698  0019E4                     i2u690_40:
  5699  0019E4  A29E               	btfss	158,1,c	;volatile
  5700  0019E6  EFF7  F00C         	goto	i2u691_41
  5701  0019EA  EFF9  F00C         	goto	i2u691_40
  5702  0019EE                     i2u691_41:
  5703  0019EE  EFFB  F00C         	goto	i2l7986
  5704  0019F2                     i2u691_40:
  5705  0019F2                     
  5706                           ;MCAL_Layer/Interrupt/mcal_interrupt_manager.c: 95:         Timer2_ISR();
  5707  0019F2  EC89  F015         	call	_Timer2_ISR	;wreg free
  5708  0019F6                     i2l7986:
  5709                           
  5710                           ;MCAL_Layer/Interrupt/mcal_interrupt_manager.c: 97:     if((1 == PIE2bits.TMR3IE) && (1 
      +                          == PIR2bits.TMR3IF)){
  5711  0019F6  A2A0               	btfss	160,1,c	;volatile
  5712  0019F8  EF00  F00D         	goto	i2u692_41
  5713  0019FC  EF02  F00D         	goto	i2u692_40
  5714  001A00                     i2u692_41:
  5715  001A00  EF0B  F00D         	goto	i2l7992
  5716  001A04                     i2u692_40:
  5717  001A04  A2A1               	btfss	161,1,c	;volatile
  5718  001A06  EF07  F00D         	goto	i2u693_41
  5719  001A0A  EF09  F00D         	goto	i2u693_40
  5720  001A0E                     i2u693_41:
  5721  001A0E  EF0B  F00D         	goto	i2l7992
  5722  001A12                     i2u693_40:
  5723  001A12                     
  5724                           ;MCAL_Layer/Interrupt/mcal_interrupt_manager.c: 98:         Timer3_ISR();
  5725  001A12  EC7D  F015         	call	_Timer3_ISR	;wreg free
  5726  001A16                     i2l7992:
  5727                           
  5728                           ;MCAL_Layer/Interrupt/mcal_interrupt_manager.c: 100:     if((1 == PIE1bits.CCP1IE) && (1
      +                           == PIR1bits.CCP1IF)){
  5729  001A16  A49D               	btfss	157,2,c	;volatile
  5730  001A18  EF10  F00D         	goto	i2u694_41
  5731  001A1C  EF12  F00D         	goto	i2u694_40
  5732  001A20                     i2u694_41:
  5733  001A20  EF1B  F00D         	goto	i2l7998
  5734  001A24                     i2u694_40:
  5735  001A24  A49E               	btfss	158,2,c	;volatile
  5736  001A26  EF17  F00D         	goto	i2u695_41
  5737  001A2A  EF19  F00D         	goto	i2u695_40
  5738  001A2E                     i2u695_41:
  5739  001A2E  EF1B  F00D         	goto	i2l7998
  5740  001A32                     i2u695_40:
  5741  001A32                     
  5742                           ;MCAL_Layer/Interrupt/mcal_interrupt_manager.c: 101:         CCP1_ISR();
  5743  001A32  EC95  F015         	call	_CCP1_ISR	;wreg free
  5744  001A36                     i2l7998:
  5745                           
  5746                           ;MCAL_Layer/Interrupt/mcal_interrupt_manager.c: 103:     if((1 == PIE2bits.CCP2IE) && (1
      +                           == PIR2bits.CCP2IF)){
  5747  001A36  A0A0               	btfss	160,0,c	;volatile
  5748  001A38  EF20  F00D         	goto	i2u696_41
  5749  001A3C  EF22  F00D         	goto	i2u696_40
  5750  001A40                     i2u696_41:
  5751  001A40  EF2B  F00D         	goto	i2l8004
  5752  001A44                     i2u696_40:
  5753  001A44  A0A1               	btfss	161,0,c	;volatile
  5754  001A46  EF27  F00D         	goto	i2u697_41
  5755  001A4A  EF29  F00D         	goto	i2u697_40
  5756  001A4E                     i2u697_41:
  5757  001A4E  EF2B  F00D         	goto	i2l8004
  5758  001A52                     i2u697_40:
  5759  001A52                     
  5760                           ;MCAL_Layer/Interrupt/mcal_interrupt_manager.c: 104:         CCP2_ISR();
  5761  001A52  EC93  F015         	call	_CCP2_ISR	;wreg free
  5762  001A56                     i2l8004:
  5763                           
  5764                           ;MCAL_Layer/Interrupt/mcal_interrupt_manager.c: 106:     if((1 == PIE1bits.TXIE) && (1 =
      +                          = PIR1bits.TXIF)){
  5765  001A56  A89D               	btfss	157,4,c	;volatile
  5766  001A58  EF30  F00D         	goto	i2u698_41
  5767  001A5C  EF32  F00D         	goto	i2u698_40
  5768  001A60                     i2u698_41:
  5769  001A60  EF3B  F00D         	goto	i2l1201
  5770  001A64                     i2u698_40:
  5771  001A64  A89E               	btfss	158,4,c	;volatile
  5772  001A66  EF37  F00D         	goto	i2u699_41
  5773  001A6A  EF39  F00D         	goto	i2u699_40
  5774  001A6E                     i2u699_41:
  5775  001A6E  EF3B  F00D         	goto	i2l1201
  5776  001A72                     i2u699_40:
  5777  001A72                     
  5778                           ;MCAL_Layer/Interrupt/mcal_interrupt_manager.c: 107:         EUSART_TX_Isr();
  5779  001A72  EC99  F015         	call	_EUSART_TX_Isr	;wreg free
  5780  001A76                     i2l1201:
  5781  001A76  C037  FFFB         	movff	??_InterruptManager+1,pclatu
  5782  001A7A  C036  FFFA         	movff	??_InterruptManager,pclath
  5783  001A7E  926D               	bcf	int$flags,1,c	;clear compiler interrupt flag (level 2)
  5784  001A80  0011               	retfie		f
  5785  001A82                     __end_of_InterruptManager:
  5786                           	callstack 0
  5787                           
  5788 ;; *************** function _Timer3_ISR *****************
  5789 ;; Defined at:
  5790 ;;		line 318 in file "MCAL_Layer/Timer3/hal_timer3.c"
  5791 ;; Parameters:    Size  Location     Type
  5792 ;;		None
  5793 ;; Auto vars:     Size  Location     Type
  5794 ;;		None
  5795 ;; Return value:  Size  Location     Type
  5796 ;;                  1    wreg      void 
  5797 ;; Registers used:
  5798 ;;		wreg, status,2
  5799 ;; Tracked objects:
  5800 ;;		On entry : 0/0
  5801 ;;		On exit  : 0/0
  5802 ;;		Unchanged: 0/0
  5803 ;; Data sizes:     COMRAM   BANK0   BANK1   BANK2   BANK3   BANK4   BANK5   BANK6   BANK7   BANK8   BANK9  BANK10  BANK1
      +1  BANK12  BANK13  BANK14  BANK15
  5804 ;;      Params:         0       0       0       0       0       0       0       0       0       0       0       0       
      +0       0       0       0       0
  5805 ;;      Locals:         0       0       0       0       0       0       0       0       0       0       0       0       
      +0       0       0       0       0
  5806 ;;      Temps:          0       0       0       0       0       0       0       0       0       0       0       0       
      +0       0       0       0       0
  5807 ;;      Totals:         0       0       0       0       0       0       0       0       0       0       0       0       
      +0       0       0       0       0
  5808 ;;Total ram usage:        0 bytes
  5809 ;; Hardware stack levels used: 1
  5810 ;; This function calls:
  5811 ;;		Nothing
  5812 ;; This function is called by:
  5813 ;;		_InterruptManager
  5814 ;; This function uses a non-reentrant model
  5815 ;;
  5816                           
  5817                           	psect	text27
  5818  002AFA                     __ptext27:
  5819                           	callstack 0
  5820  002AFA                     _Timer3_ISR:
  5821                           	callstack 25
  5822  002AFA                     
  5823                           ;MCAL_Layer/Timer3/hal_timer3.c: 319:     (PIR2bits.TMR3IF = 0);
  5824  002AFA  92A1               	bcf	161,1,c	;volatile
  5825  002AFC                     
  5826                           ;MCAL_Layer/Timer3/hal_timer3.c: 320:     TMR3H = (timer3_isr_preload_value) >> 8;
  5827  002AFC  5002               	movf	(_timer3_isr_preload_value+1)^0,w,c	;volatile
  5828  002AFE  6EB3               	movwf	179,c	;volatile
  5829  002B00                     
  5830                           ;MCAL_Layer/Timer3/hal_timer3.c: 321:     TMR3L = (uint8)(timer3_isr_preload_value);
  5831  002B00  C001  FFB2         	movff	_timer3_isr_preload_value,4018	;volatile
  5832  002B04  0012               	return		;funcret
  5833  002B06                     __end_of_Timer3_ISR:
  5834                           	callstack 0
  5835                           
  5836 ;; *************** function _Timer2_ISR *****************
  5837 ;; Defined at:
  5838 ;;		line 168 in file "MCAL_Layer/Timer2/hal_timer2.c"
  5839 ;; Parameters:    Size  Location     Type
  5840 ;;		None
  5841 ;; Auto vars:     Size  Location     Type
  5842 ;;		None
  5843 ;; Return value:  Size  Location     Type
  5844 ;;                  1    wreg      void 
  5845 ;; Registers used:
  5846 ;;		None
  5847 ;; Tracked objects:
  5848 ;;		On entry : 0/0
  5849 ;;		On exit  : 0/0
  5850 ;;		Unchanged: 0/0
  5851 ;; Data sizes:     COMRAM   BANK0   BANK1   BANK2   BANK3   BANK4   BANK5   BANK6   BANK7   BANK8   BANK9  BANK10  BANK1
      +1  BANK12  BANK13  BANK14  BANK15
  5852 ;;      Params:         0       0       0       0       0       0       0       0       0       0       0       0       
      +0       0       0       0       0
  5853 ;;      Locals:         0       0       0       0       0       0       0       0       0       0       0       0       
      +0       0       0       0       0
  5854 ;;      Temps:          0       0       0       0       0       0       0       0       0       0       0       0       
      +0       0       0       0       0
  5855 ;;      Totals:         0       0       0       0       0       0       0       0       0       0       0       0       
      +0       0       0       0       0
  5856 ;;Total ram usage:        0 bytes
  5857 ;; Hardware stack levels used: 1
  5858 ;; This function calls:
  5859 ;;		Nothing
  5860 ;; This function is called by:
  5861 ;;		_InterruptManager
  5862 ;; This function uses a non-reentrant model
  5863 ;;
  5864                           
  5865                           	psect	text28
  5866  002B12                     __ptext28:
  5867                           	callstack 0
  5868  002B12                     _Timer2_ISR:
  5869                           	callstack 25
  5870  002B12                     
  5871                           ;MCAL_Layer/Timer2/hal_timer2.c: 169:     (PIR1bits.TMR2IF = 0);
  5872  002B12  929E               	bcf	158,1,c	;volatile
  5873                           
  5874                           ;MCAL_Layer/Timer2/hal_timer2.c: 171:     TMR2 = timer2_preload;
  5875  002B14  C026  FFCC         	movff	_timer2_preload,4044	;volatile
  5876  002B18  0012               	return		;funcret
  5877  002B1A                     __end_of_Timer2_ISR:
  5878                           	callstack 0
  5879                           
  5880 ;; *************** function _Timer1_ISR *****************
  5881 ;; Defined at:
  5882 ;;		line 339 in file "MCAL_Layer/Timer1/hal_timer1.c"
  5883 ;; Parameters:    Size  Location     Type
  5884 ;;		None
  5885 ;; Auto vars:     Size  Location     Type
  5886 ;;		None
  5887 ;; Return value:  Size  Location     Type
  5888 ;;                  1    wreg      void 
  5889 ;; Registers used:
  5890 ;;		wreg, status,2
  5891 ;; Tracked objects:
  5892 ;;		On entry : 0/0
  5893 ;;		On exit  : 0/0
  5894 ;;		Unchanged: 0/0
  5895 ;; Data sizes:     COMRAM   BANK0   BANK1   BANK2   BANK3   BANK4   BANK5   BANK6   BANK7   BANK8   BANK9  BANK10  BANK1
      +1  BANK12  BANK13  BANK14  BANK15
  5896 ;;      Params:         0       0       0       0       0       0       0       0       0       0       0       0       
      +0       0       0       0       0
  5897 ;;      Locals:         0       0       0       0       0       0       0       0       0       0       0       0       
      +0       0       0       0       0
  5898 ;;      Temps:          0       0       0       0       0       0       0       0       0       0       0       0       
      +0       0       0       0       0
  5899 ;;      Totals:         0       0       0       0       0       0       0       0       0       0       0       0       
      +0       0       0       0       0
  5900 ;;Total ram usage:        0 bytes
  5901 ;; Hardware stack levels used: 1
  5902 ;; This function calls:
  5903 ;;		Nothing
  5904 ;; This function is called by:
  5905 ;;		_InterruptManager
  5906 ;; This function uses a non-reentrant model
  5907 ;;
  5908                           
  5909                           	psect	text29
  5910  002B06                     __ptext29:
  5911                           	callstack 0
  5912  002B06                     _Timer1_ISR:
  5913                           	callstack 25
  5914  002B06                     
  5915                           ;MCAL_Layer/Timer1/hal_timer1.c: 340:     (PIR1bits.TMR1IF = 0);
  5916  002B06  909E               	bcf	158,0,c	;volatile
  5917  002B08                     
  5918                           ;MCAL_Layer/Timer1/hal_timer1.c: 341:     TMR1H = (timer1_isr_preload_value) >> 8;
  5919  002B08  5004               	movf	(_timer1_isr_preload_value+1)^0,w,c	;volatile
  5920  002B0A  6ECF               	movwf	207,c	;volatile
  5921  002B0C                     
  5922                           ;MCAL_Layer/Timer1/hal_timer1.c: 342:     TMR1L = (uint8)(timer1_isr_preload_value);
  5923  002B0C  C003  FFCE         	movff	_timer1_isr_preload_value,4046	;volatile
  5924  002B10  0012               	return		;funcret
  5925  002B12                     __end_of_Timer1_ISR:
  5926                           	callstack 0
  5927                           
  5928 ;; *************** function _Timer0_ISR *****************
  5929 ;; Defined at:
  5930 ;;		line 407 in file "MCAL_Layer/Timer0/hal_timer0.c"
  5931 ;; Parameters:    Size  Location     Type
  5932 ;;		None
  5933 ;; Auto vars:     Size  Location     Type
  5934 ;;		None
  5935 ;; Return value:  Size  Location     Type
  5936 ;;                  1    wreg      void 
  5937 ;; Registers used:
  5938 ;;		wreg, status,2, status,0, pcl, pclath, pclatu, tosl, cstack
  5939 ;; Tracked objects:
  5940 ;;		On entry : 0/0
  5941 ;;		On exit  : 0/0
  5942 ;;		Unchanged: 0/0
  5943 ;; Data sizes:     COMRAM   BANK0   BANK1   BANK2   BANK3   BANK4   BANK5   BANK6   BANK7   BANK8   BANK9  BANK10  BANK1
      +1  BANK12  BANK13  BANK14  BANK15
  5944 ;;      Params:         0       0       0       0       0       0       0       0       0       0       0       0       
      +0       0       0       0       0
  5945 ;;      Locals:         0       0       0       0       0       0       0       0       0       0       0       0       
      +0       0       0       0       0
  5946 ;;      Temps:          0       0       0       0       0       0       0       0       0       0       0       0       
      +0       0       0       0       0
  5947 ;;      Totals:         0       0       0       0       0       0       0       0       0       0       0       0       
      +0       0       0       0       0
  5948 ;;Total ram usage:        0 bytes
  5949 ;; Hardware stack levels used: 1
  5950 ;; Hardware stack levels required when called: 1
  5951 ;; This function calls:
  5952 ;;		Absolute function
  5953 ;;		_TMR_ISR
  5954 ;; This function is called by:
  5955 ;;		_InterruptManager
  5956 ;; This function uses a non-reentrant model
  5957 ;;
  5958                           
  5959                           	psect	text30
  5960  0029F0                     __ptext30:
  5961                           	callstack 0
  5962  0029F0                     _Timer0_ISR:
  5963                           	callstack 24
  5964  0029F0                     
  5965                           ;MCAL_Layer/Timer0/hal_timer0.c: 408:     (INTCONbits.TMR0IF = 0);
  5966  0029F0  94F2               	bcf	242,2,c	;volatile
  5967  0029F2                     
  5968                           ;MCAL_Layer/Timer0/hal_timer0.c: 409:     if(TMR0_InterruptHandler != ((void*)0)){
  5969  0029F2  5007               	movf	_TMR0_InterruptHandler^0,w,c
  5970  0029F4  1008               	iorwf	(_TMR0_InterruptHandler+1)^0,w,c
  5971  0029F6  B4D8               	btfsc	status,2,c
  5972  0029F8  EF00  F015         	goto	i2u505_41
  5973  0029FC  EF02  F015         	goto	i2u505_40
  5974  002A00                     i2u505_41:
  5975  002A00  EF0E  F015         	goto	i2l1341
  5976  002A04                     i2u505_40:
  5977  002A04                     
  5978                           ;MCAL_Layer/Timer0/hal_timer0.c: 410:         TMR0_InterruptHandler();
  5979  002A04  D802               	call	i2u506_48
  5980  002A06  EF0E  F015         	goto	i2u506_49
  5981  002A0A                     i2u506_48:
  5982  002A0A  0005               	push	
  5983  002A0C  6EFA               	movwf	pclath,c
  5984  002A0E  5007               	movf	_TMR0_InterruptHandler^0,w,c
  5985  002A10  6EFD               	movwf	tosl,c
  5986  002A12  5008               	movf	(_TMR0_InterruptHandler+1)^0,w,c
  5987  002A14  6EFE               	movwf	tosh,c
  5988  002A16  6AFF               	clrf	tosu,c
  5989  002A18  50FA               	movf	pclath,w,c
  5990  002A1A  0012               	return		;indir
  5991  002A1C                     i2u506_49:
  5992  002A1C                     i2l1341:
  5993  002A1C  0012               	return		;funcret
  5994  002A1E                     __end_of_Timer0_ISR:
  5995                           	callstack 0
  5996                           
  5997 ;; *************** function _TMR_ISR *****************
  5998 ;; Defined at:
  5999 ;;		line 503 in file "application.c"
  6000 ;; Parameters:    Size  Location     Type
  6001 ;;		None
  6002 ;; Auto vars:     Size  Location     Type
  6003 ;;		None
  6004 ;; Return value:  Size  Location     Type
  6005 ;;                  1    wreg      void 
  6006 ;; Registers used:
  6007 ;;		wreg, status,2, status,0
  6008 ;; Tracked objects:
  6009 ;;		On entry : 0/0
  6010 ;;		On exit  : 0/0
  6011 ;;		Unchanged: 0/0
  6012 ;; Data sizes:     COMRAM   BANK0   BANK1   BANK2   BANK3   BANK4   BANK5   BANK6   BANK7   BANK8   BANK9  BANK10  BANK1
      +1  BANK12  BANK13  BANK14  BANK15
  6013 ;;      Params:         0       0       0       0       0       0       0       0       0       0       0       0       
      +0       0       0       0       0
  6014 ;;      Locals:         0       0       0       0       0       0       0       0       0       0       0       0       
      +0       0       0       0       0
  6015 ;;      Temps:          0       0       0       0       0       0       0       0       0       0       0       0       
      +0       0       0       0       0
  6016 ;;      Totals:         0       0       0       0       0       0       0       0       0       0       0       0       
      +0       0       0       0       0
  6017 ;;Total ram usage:        0 bytes
  6018 ;; Hardware stack levels used: 1
  6019 ;; This function calls:
  6020 ;;		Nothing
  6021 ;; This function is called by:
  6022 ;;		_Timer0_ISR
  6023 ;; This function uses a non-reentrant model
  6024 ;;
  6025                           
  6026                           	psect	text31
  6027  002728                     __ptext31:
  6028                           	callstack 0
  6029  002728                     _TMR_ISR:
  6030                           	callstack 24
  6031  002728                     
  6032                           ;application.c: 504:     t_counter++;
  6033  002728  0E01               	movlw	1
  6034  00272A  0100               	movlb	0	; () banked
  6035  00272C  27DD               	addwf	_t_counter& (0+255),f,b	;volatile
  6036  00272E  0E00               	movlw	0
  6037  002730  23DE               	addwfc	(_t_counter+1)& (0+255),f,b	;volatile
  6038  002732  23DF               	addwfc	(_t_counter+2)& (0+255),f,b	;volatile
  6039  002734  23E0               	addwfc	(_t_counter+3)& (0+255),f,b	;volatile
  6040  002736                     
  6041                           ; BSR set to: 0
  6042                           ;application.c: 505:     seconds++;
  6043  002736  2A5B               	incf	_seconds^0,f,c	;volatile
  6044  002738                     
  6045                           ; BSR set to: 0
  6046                           ;application.c: 506:     if(seconds >= 60){
  6047  002738  0E3B               	movlw	59
  6048  00273A  645B               	cpfsgt	_seconds^0,c	;volatile
  6049  00273C  EFA2  F013         	goto	i2u483_41
  6050  002740  EFA4  F013         	goto	i2u483_40
  6051  002744                     i2u483_41:
  6052  002744  EFC6  F013         	goto	i2l1812
  6053  002748                     i2u483_40:
  6054  002748                     
  6055                           ; BSR set to: 0
  6056                           ;application.c: 507:         seconds = 0;
  6057  002748  0E00               	movlw	0
  6058  00274A  6E5B               	movwf	_seconds^0,c	;volatile
  6059                           
  6060                           ;application.c: 508:         t_counter=0;
  6061  00274C  0E00               	movlw	0
  6062  00274E  6FDD               	movwf	_t_counter& (0+255),b	;volatile
  6063  002750  0E00               	movlw	0
  6064  002752  6FDE               	movwf	(_t_counter+1)& (0+255),b	;volatile
  6065  002754  0E00               	movlw	0
  6066  002756  6FDF               	movwf	(_t_counter+2)& (0+255),b	;volatile
  6067  002758  0E00               	movlw	0
  6068  00275A  6FE0               	movwf	(_t_counter+3)& (0+255),b	;volatile
  6069  00275C                     
  6070                           ; BSR set to: 0
  6071                           ;application.c: 509:         minutes++;
  6072  00275C  2A5A               	incf	_minutes^0,f,c	;volatile
  6073  00275E                     
  6074                           ; BSR set to: 0
  6075                           ;application.c: 510:         if(minutes >= 60){
  6076  00275E  0E3B               	movlw	59
  6077  002760  645A               	cpfsgt	_minutes^0,c	;volatile
  6078  002762  EFB5  F013         	goto	i2u484_41
  6079  002766  EFB7  F013         	goto	i2u484_40
  6080  00276A                     i2u484_41:
  6081  00276A  EFC6  F013         	goto	i2l1812
  6082  00276E                     i2u484_40:
  6083  00276E                     
  6084                           ; BSR set to: 0
  6085                           ;application.c: 511:             minutes = 0;
  6086  00276E  0E00               	movlw	0
  6087  002770  6E5A               	movwf	_minutes^0,c	;volatile
  6088  002772                     
  6089                           ; BSR set to: 0
  6090                           ;application.c: 512:             hours++;
  6091  002772  2A23               	incf	_hours^0,f,c	;volatile
  6092  002774                     
  6093                           ; BSR set to: 0
  6094                           ;application.c: 513:             if(hours >= 24){
  6095  002774  0E17               	movlw	23
  6096  002776  6423               	cpfsgt	_hours^0,c	;volatile
  6097  002778  EFC0  F013         	goto	i2u485_41
  6098  00277C  EFC2  F013         	goto	i2u485_40
  6099  002780                     i2u485_41:
  6100  002780  EFC6  F013         	goto	i2l1809
  6101  002784                     i2u485_40:
  6102  002784                     
  6103                           ; BSR set to: 0
  6104                           ;application.c: 514:                 hours = 0;
  6105  002784  0E00               	movlw	0
  6106  002786  6E23               	movwf	_hours^0,c	;volatile
  6107                           
  6108                           ;application.c: 516:             }
  6109  002788  EFC6  F013         	goto	i2l1812
  6110  00278C                     i2l1809:
  6111  00278C                     i2l1812:
  6112                           
  6113                           ; BSR set to: 0
  6114  00278C  0012               	return		;funcret
  6115  00278E                     __end_of_TMR_ISR:
  6116                           	callstack 0
  6117                           
  6118 ;; *************** function _RB7_ISR *****************
  6119 ;; Defined at:
  6120 ;;		line 765 in file "MCAL_Layer/Interrupt/mcal_external_interrupt.c"
  6121 ;; Parameters:    Size  Location     Type
  6122 ;;  source          1    wreg     unsigned char 
  6123 ;; Auto vars:     Size  Location     Type
  6124 ;;  source          1    0[COMRAM] unsigned char 
  6125 ;; Return value:  Size  Location     Type
  6126 ;;                  1    wreg      void 
  6127 ;; Registers used:
  6128 ;;		wreg, status,2, status,0
  6129 ;; Tracked objects:
  6130 ;;		On entry : 0/0
  6131 ;;		On exit  : 0/0
  6132 ;;		Unchanged: 0/0
  6133 ;; Data sizes:     COMRAM   BANK0   BANK1   BANK2   BANK3   BANK4   BANK5   BANK6   BANK7   BANK8   BANK9  BANK10  BANK1
      +1  BANK12  BANK13  BANK14  BANK15
  6134 ;;      Params:         0       0       0       0       0       0       0       0       0       0       0       0       
      +0       0       0       0       0
  6135 ;;      Locals:         1       0       0       0       0       0       0       0       0       0       0       0       
      +0       0       0       0       0
  6136 ;;      Temps:          0       0       0       0       0       0       0       0       0       0       0       0       
      +0       0       0       0       0
  6137 ;;      Totals:         1       0       0       0       0       0       0       0       0       0       0       0       
      +0       0       0       0       0
  6138 ;;Total ram usage:        1 bytes
  6139 ;; Hardware stack levels used: 1
  6140 ;; This function calls:
  6141 ;;		Nothing
  6142 ;; This function is called by:
  6143 ;;		_InterruptManager
  6144 ;; This function uses a non-reentrant model
  6145 ;;
  6146                           
  6147                           	psect	text32
  6148  002A7E                     __ptext32:
  6149                           	callstack 0
  6150  002A7E                     _RB7_ISR:
  6151                           	callstack 25
  6152                           
  6153                           ; BSR set to: 0
  6154                           ;incstack = 0
  6155                           ;RB7_ISR@source stored from wreg
  6156  002A7E  6E35               	movwf	RB7_ISR@source^0,c
  6157  002A80                     
  6158                           ;MCAL_Layer/Interrupt/mcal_external_interrupt.c: 766:     (INTCONbits.RBIF = 0);
  6159  002A80  90F2               	bcf	242,0,c	;volatile
  6160  002A82                     
  6161                           ;MCAL_Layer/Interrupt/mcal_external_interrupt.c: 767:     if(source == 0){
  6162  002A82  5035               	movf	RB7_ISR@source^0,w,c
  6163  002A84  A4D8               	btfss	status,2,c
  6164  002A86  EF47  F015         	goto	i2u87_41
  6165  002A8A  EF49  F015         	goto	i2u87_40
  6166  002A8E                     i2u87_41:
  6167  002A8E  EF4B  F015         	goto	i2l3344
  6168  002A92                     i2u87_40:
  6169  002A92  EF4B  F015         	goto	i2l1125
  6170  002A96                     i2l3344:
  6171  002A96                     i2l1125:
  6172  002A96  0012               	return		;funcret
  6173  002A98                     __end_of_RB7_ISR:
  6174                           	callstack 0
  6175                           
  6176 ;; *************** function _RB6_ISR *****************
  6177 ;; Defined at:
  6178 ;;		line 756 in file "MCAL_Layer/Interrupt/mcal_external_interrupt.c"
  6179 ;; Parameters:    Size  Location     Type
  6180 ;;  source          1    wreg     unsigned char 
  6181 ;; Auto vars:     Size  Location     Type
  6182 ;;  source          1    0[COMRAM] unsigned char 
  6183 ;; Return value:  Size  Location     Type
  6184 ;;                  1    wreg      void 
  6185 ;; Registers used:
  6186 ;;		wreg, status,2, status,0
  6187 ;; Tracked objects:
  6188 ;;		On entry : 0/0
  6189 ;;		On exit  : 0/0
  6190 ;;		Unchanged: 0/0
  6191 ;; Data sizes:     COMRAM   BANK0   BANK1   BANK2   BANK3   BANK4   BANK5   BANK6   BANK7   BANK8   BANK9  BANK10  BANK1
      +1  BANK12  BANK13  BANK14  BANK15
  6192 ;;      Params:         0       0       0       0       0       0       0       0       0       0       0       0       
      +0       0       0       0       0
  6193 ;;      Locals:         1       0       0       0       0       0       0       0       0       0       0       0       
      +0       0       0       0       0
  6194 ;;      Temps:          0       0       0       0       0       0       0       0       0       0       0       0       
      +0       0       0       0       0
  6195 ;;      Totals:         1       0       0       0       0       0       0       0       0       0       0       0       
      +0       0       0       0       0
  6196 ;;Total ram usage:        1 bytes
  6197 ;; Hardware stack levels used: 1
  6198 ;; This function calls:
  6199 ;;		Nothing
  6200 ;; This function is called by:
  6201 ;;		_InterruptManager
  6202 ;; This function uses a non-reentrant model
  6203 ;;
  6204                           
  6205                           	psect	text33
  6206  002A98                     __ptext33:
  6207                           	callstack 0
  6208  002A98                     _RB6_ISR:
  6209                           	callstack 25
  6210                           
  6211                           ;incstack = 0
  6212                           ;RB6_ISR@source stored from wreg
  6213  002A98  6E35               	movwf	RB6_ISR@source^0,c
  6214  002A9A                     
  6215                           ;MCAL_Layer/Interrupt/mcal_external_interrupt.c: 757:     (INTCONbits.RBIF = 0);
  6216  002A9A  90F2               	bcf	242,0,c	;volatile
  6217  002A9C                     
  6218                           ;MCAL_Layer/Interrupt/mcal_external_interrupt.c: 758:     if(source == 0){
  6219  002A9C  5035               	movf	RB6_ISR@source^0,w,c
  6220  002A9E  A4D8               	btfss	status,2,c
  6221  002AA0  EF54  F015         	goto	i2u86_41
  6222  002AA4  EF56  F015         	goto	i2u86_40
  6223  002AA8                     i2u86_41:
  6224  002AA8  EF58  F015         	goto	i2l3334
  6225  002AAC                     i2u86_40:
  6226  002AAC  EF58  F015         	goto	i2l1117
  6227  002AB0                     i2l3334:
  6228  002AB0                     i2l1117:
  6229  002AB0  0012               	return		;funcret
  6230  002AB2                     __end_of_RB6_ISR:
  6231                           	callstack 0
  6232                           
  6233 ;; *************** function _RB5_ISR *****************
  6234 ;; Defined at:
  6235 ;;		line 747 in file "MCAL_Layer/Interrupt/mcal_external_interrupt.c"
  6236 ;; Parameters:    Size  Location     Type
  6237 ;;  source          1    wreg     unsigned char 
  6238 ;; Auto vars:     Size  Location     Type
  6239 ;;  source          1    0[COMRAM] unsigned char 
  6240 ;; Return value:  Size  Location     Type
  6241 ;;                  1    wreg      void 
  6242 ;; Registers used:
  6243 ;;		wreg, status,2, status,0
  6244 ;; Tracked objects:
  6245 ;;		On entry : 0/0
  6246 ;;		On exit  : 0/0
  6247 ;;		Unchanged: 0/0
  6248 ;; Data sizes:     COMRAM   BANK0   BANK1   BANK2   BANK3   BANK4   BANK5   BANK6   BANK7   BANK8   BANK9  BANK10  BANK1
      +1  BANK12  BANK13  BANK14  BANK15
  6249 ;;      Params:         0       0       0       0       0       0       0       0       0       0       0       0       
      +0       0       0       0       0
  6250 ;;      Locals:         1       0       0       0       0       0       0       0       0       0       0       0       
      +0       0       0       0       0
  6251 ;;      Temps:          0       0       0       0       0       0       0       0       0       0       0       0       
      +0       0       0       0       0
  6252 ;;      Totals:         1       0       0       0       0       0       0       0       0       0       0       0       
      +0       0       0       0       0
  6253 ;;Total ram usage:        1 bytes
  6254 ;; Hardware stack levels used: 1
  6255 ;; This function calls:
  6256 ;;		Nothing
  6257 ;; This function is called by:
  6258 ;;		_InterruptManager
  6259 ;; This function uses a non-reentrant model
  6260 ;;
  6261                           
  6262                           	psect	text34
  6263  002AB2                     __ptext34:
  6264                           	callstack 0
  6265  002AB2                     _RB5_ISR:
  6266                           	callstack 25
  6267                           
  6268                           ;incstack = 0
  6269                           ;RB5_ISR@source stored from wreg
  6270  002AB2  6E35               	movwf	RB5_ISR@source^0,c
  6271  002AB4                     
  6272                           ;MCAL_Layer/Interrupt/mcal_external_interrupt.c: 748:     (INTCONbits.RBIF = 0);
  6273  002AB4  90F2               	bcf	242,0,c	;volatile
  6274  002AB6                     
  6275                           ;MCAL_Layer/Interrupt/mcal_external_interrupt.c: 749:     if(source == 0){
  6276  002AB6  5035               	movf	RB5_ISR@source^0,w,c
  6277  002AB8  A4D8               	btfss	status,2,c
  6278  002ABA  EF61  F015         	goto	i2u85_41
  6279  002ABE  EF63  F015         	goto	i2u85_40
  6280  002AC2                     i2u85_41:
  6281  002AC2  EF65  F015         	goto	i2l3324
  6282  002AC6                     i2u85_40:
  6283  002AC6  EF65  F015         	goto	i2l1109
  6284  002ACA                     i2l3324:
  6285  002ACA                     i2l1109:
  6286  002ACA  0012               	return		;funcret
  6287  002ACC                     __end_of_RB5_ISR:
  6288                           	callstack 0
  6289                           
  6290 ;; *************** function _RB4_ISR *****************
  6291 ;; Defined at:
  6292 ;;		line 738 in file "MCAL_Layer/Interrupt/mcal_external_interrupt.c"
  6293 ;; Parameters:    Size  Location     Type
  6294 ;;  source          1    wreg     unsigned char 
  6295 ;; Auto vars:     Size  Location     Type
  6296 ;;  source          1    0[COMRAM] unsigned char 
  6297 ;; Return value:  Size  Location     Type
  6298 ;;                  1    wreg      void 
  6299 ;; Registers used:
  6300 ;;		wreg, status,2, status,0
  6301 ;; Tracked objects:
  6302 ;;		On entry : 0/0
  6303 ;;		On exit  : 0/0
  6304 ;;		Unchanged: 0/0
  6305 ;; Data sizes:     COMRAM   BANK0   BANK1   BANK2   BANK3   BANK4   BANK5   BANK6   BANK7   BANK8   BANK9  BANK10  BANK1
      +1  BANK12  BANK13  BANK14  BANK15
  6306 ;;      Params:         0       0       0       0       0       0       0       0       0       0       0       0       
      +0       0       0       0       0
  6307 ;;      Locals:         1       0       0       0       0       0       0       0       0       0       0       0       
      +0       0       0       0       0
  6308 ;;      Temps:          0       0       0       0       0       0       0       0       0       0       0       0       
      +0       0       0       0       0
  6309 ;;      Totals:         1       0       0       0       0       0       0       0       0       0       0       0       
      +0       0       0       0       0
  6310 ;;Total ram usage:        1 bytes
  6311 ;; Hardware stack levels used: 1
  6312 ;; This function calls:
  6313 ;;		Nothing
  6314 ;; This function is called by:
  6315 ;;		_InterruptManager
  6316 ;; This function uses a non-reentrant model
  6317 ;;
  6318                           
  6319                           	psect	text35
  6320  002ACC                     __ptext35:
  6321                           	callstack 0
  6322  002ACC                     _RB4_ISR:
  6323                           	callstack 25
  6324                           
  6325                           ;incstack = 0
  6326                           ;RB4_ISR@source stored from wreg
  6327  002ACC  6E35               	movwf	RB4_ISR@source^0,c
  6328  002ACE                     
  6329                           ;MCAL_Layer/Interrupt/mcal_external_interrupt.c: 739:     (INTCONbits.RBIF = 0);
  6330  002ACE  90F2               	bcf	242,0,c	;volatile
  6331  002AD0                     
  6332                           ;MCAL_Layer/Interrupt/mcal_external_interrupt.c: 740:     if(source == 0){
  6333  002AD0  5035               	movf	RB4_ISR@source^0,w,c
  6334  002AD2  A4D8               	btfss	status,2,c
  6335  002AD4  EF6E  F015         	goto	i2u84_41
  6336  002AD8  EF70  F015         	goto	i2u84_40
  6337  002ADC                     i2u84_41:
  6338  002ADC  EF72  F015         	goto	i2l3314
  6339  002AE0                     i2u84_40:
  6340  002AE0  EF72  F015         	goto	i2l1101
  6341  002AE4                     i2l3314:
  6342  002AE4                     i2l1101:
  6343  002AE4  0012               	return		;funcret
  6344  002AE6                     __end_of_RB4_ISR:
  6345                           	callstack 0
  6346                           
  6347 ;; *************** function _INT2_ISR *****************
  6348 ;; Defined at:
  6349 ;;		line 614 in file "MCAL_Layer/Interrupt/mcal_external_interrupt.c"
  6350 ;; Parameters:    Size  Location     Type
  6351 ;;		None
  6352 ;; Auto vars:     Size  Location     Type
  6353 ;;		None
  6354 ;; Return value:  Size  Location     Type
  6355 ;;                  1    wreg      void 
  6356 ;; Registers used:
  6357 ;;		None
  6358 ;; Tracked objects:
  6359 ;;		On entry : 0/0
  6360 ;;		On exit  : 0/0
  6361 ;;		Unchanged: 0/0
  6362 ;; Data sizes:     COMRAM   BANK0   BANK1   BANK2   BANK3   BANK4   BANK5   BANK6   BANK7   BANK8   BANK9  BANK10  BANK1
      +1  BANK12  BANK13  BANK14  BANK15
  6363 ;;      Params:         0       0       0       0       0       0       0       0       0       0       0       0       
      +0       0       0       0       0
  6364 ;;      Locals:         0       0       0       0       0       0       0       0       0       0       0       0       
      +0       0       0       0       0
  6365 ;;      Temps:          0       0       0       0       0       0       0       0       0       0       0       0       
      +0       0       0       0       0
  6366 ;;      Totals:         0       0       0       0       0       0       0       0       0       0       0       0       
      +0       0       0       0       0
  6367 ;;Total ram usage:        0 bytes
  6368 ;; Hardware stack levels used: 1
  6369 ;; This function calls:
  6370 ;;		Nothing
  6371 ;; This function is called by:
  6372 ;;		_InterruptManager
  6373 ;; This function uses a non-reentrant model
  6374 ;;
  6375                           
  6376                           	psect	text36
  6377  002B1A                     __ptext36:
  6378                           	callstack 0
  6379  002B1A                     _INT2_ISR:
  6380                           	callstack 25
  6381  002B1A                     
  6382                           ;MCAL_Layer/Interrupt/mcal_external_interrupt.c: 615:     (INTCON3bits.INT2IF = 0);
  6383  002B1A  92F0               	bcf	240,1,c	;volatile
  6384  002B1C  0012               	return		;funcret
  6385  002B1E                     __end_of_INT2_ISR:
  6386                           	callstack 0
  6387                           
  6388 ;; *************** function _INT1_ISR *****************
  6389 ;; Defined at:
  6390 ;;		line 608 in file "MCAL_Layer/Interrupt/mcal_external_interrupt.c"
  6391 ;; Parameters:    Size  Location     Type
  6392 ;;		None
  6393 ;; Auto vars:     Size  Location     Type
  6394 ;;		None
  6395 ;; Return value:  Size  Location     Type
  6396 ;;                  1    wreg      void 
  6397 ;; Registers used:
  6398 ;;		None
  6399 ;; Tracked objects:
  6400 ;;		On entry : 0/0
  6401 ;;		On exit  : 0/0
  6402 ;;		Unchanged: 0/0
  6403 ;; Data sizes:     COMRAM   BANK0   BANK1   BANK2   BANK3   BANK4   BANK5   BANK6   BANK7   BANK8   BANK9  BANK10  BANK1
      +1  BANK12  BANK13  BANK14  BANK15
  6404 ;;      Params:         0       0       0       0       0       0       0       0       0       0       0       0       
      +0       0       0       0       0
  6405 ;;      Locals:         0       0       0       0       0       0       0       0       0       0       0       0       
      +0       0       0       0       0
  6406 ;;      Temps:          0       0       0       0       0       0       0       0       0       0       0       0       
      +0       0       0       0       0
  6407 ;;      Totals:         0       0       0       0       0       0       0       0       0       0       0       0       
      +0       0       0       0       0
  6408 ;;Total ram usage:        0 bytes
  6409 ;; Hardware stack levels used: 1
  6410 ;; This function calls:
  6411 ;;		Nothing
  6412 ;; This function is called by:
  6413 ;;		_InterruptManager
  6414 ;; This function uses a non-reentrant model
  6415 ;;
  6416                           
  6417                           	psect	text37
  6418  002B1E                     __ptext37:
  6419                           	callstack 0
  6420  002B1E                     _INT1_ISR:
  6421                           	callstack 25
  6422  002B1E                     
  6423                           ;MCAL_Layer/Interrupt/mcal_external_interrupt.c: 609:     (INTCON3bits.INT1IF = 0);
  6424  002B1E  90F0               	bcf	240,0,c	;volatile
  6425  002B20  0012               	return		;funcret
  6426  002B22                     __end_of_INT1_ISR:
  6427                           	callstack 0
  6428                           
  6429 ;; *************** function _INT0_ISR *****************
  6430 ;; Defined at:
  6431 ;;		line 602 in file "MCAL_Layer/Interrupt/mcal_external_interrupt.c"
  6432 ;; Parameters:    Size  Location     Type
  6433 ;;		None
  6434 ;; Auto vars:     Size  Location     Type
  6435 ;;		None
  6436 ;; Return value:  Size  Location     Type
  6437 ;;                  1    wreg      void 
  6438 ;; Registers used:
  6439 ;;		None
  6440 ;; Tracked objects:
  6441 ;;		On entry : 0/0
  6442 ;;		On exit  : 0/0
  6443 ;;		Unchanged: 0/0
  6444 ;; Data sizes:     COMRAM   BANK0   BANK1   BANK2   BANK3   BANK4   BANK5   BANK6   BANK7   BANK8   BANK9  BANK10  BANK1
      +1  BANK12  BANK13  BANK14  BANK15
  6445 ;;      Params:         0       0       0       0       0       0       0       0       0       0       0       0       
      +0       0       0       0       0
  6446 ;;      Locals:         0       0       0       0       0       0       0       0       0       0       0       0       
      +0       0       0       0       0
  6447 ;;      Temps:          0       0       0       0       0       0       0       0       0       0       0       0       
      +0       0       0       0       0
  6448 ;;      Totals:         0       0       0       0       0       0       0       0       0       0       0       0       
      +0       0       0       0       0
  6449 ;;Total ram usage:        0 bytes
  6450 ;; Hardware stack levels used: 1
  6451 ;; This function calls:
  6452 ;;		Nothing
  6453 ;; This function is called by:
  6454 ;;		_InterruptManager
  6455 ;; This function uses a non-reentrant model
  6456 ;;
  6457                           
  6458                           	psect	text38
  6459  002B22                     __ptext38:
  6460                           	callstack 0
  6461  002B22                     _INT0_ISR:
  6462                           	callstack 25
  6463  002B22                     
  6464                           ;MCAL_Layer/Interrupt/mcal_external_interrupt.c: 603:     (INTCONbits.INT0IF = 0);
  6465  002B22  92F2               	bcf	242,1,c	;volatile
  6466  002B24  0012               	return		;funcret
  6467  002B26                     __end_of_INT0_ISR:
  6468                           	callstack 0
  6469                           
  6470 ;; *************** function _EUSART_TX_Isr *****************
  6471 ;; Defined at:
  6472 ;;		line 349 in file "MCAL_Layer/EUSART/hal_eusart.c"
  6473 ;; Parameters:    Size  Location     Type
  6474 ;;		None
  6475 ;; Auto vars:     Size  Location     Type
  6476 ;;		None
  6477 ;; Return value:  Size  Location     Type
  6478 ;;                  1    wreg      void 
  6479 ;; Registers used:
  6480 ;;		wreg, status,2, status,0
  6481 ;; Tracked objects:
  6482 ;;		On entry : 0/0
  6483 ;;		On exit  : 0/0
  6484 ;;		Unchanged: 0/0
  6485 ;; Data sizes:     COMRAM   BANK0   BANK1   BANK2   BANK3   BANK4   BANK5   BANK6   BANK7   BANK8   BANK9  BANK10  BANK1
      +1  BANK12  BANK13  BANK14  BANK15
  6486 ;;      Params:         0       0       0       0       0       0       0       0       0       0       0       0       
      +0       0       0       0       0
  6487 ;;      Locals:         0       0       0       0       0       0       0       0       0       0       0       0       
      +0       0       0       0       0
  6488 ;;      Temps:          0       0       0       0       0       0       0       0       0       0       0       0       
      +0       0       0       0       0
  6489 ;;      Totals:         0       0       0       0       0       0       0       0       0       0       0       0       
      +0       0       0       0       0
  6490 ;;Total ram usage:        0 bytes
  6491 ;; Hardware stack levels used: 1
  6492 ;; This function calls:
  6493 ;;		Nothing
  6494 ;; This function is called by:
  6495 ;;		_InterruptManager
  6496 ;; This function uses a non-reentrant model
  6497 ;;
  6498                           
  6499                           	psect	text39
  6500  002B32                     __ptext39:
  6501                           	callstack 0
  6502  002B32                     _EUSART_TX_Isr:
  6503                           	callstack 25
  6504  002B32  0012               	return		;funcret
  6505  002B34                     __end_of_EUSART_TX_Isr:
  6506                           	callstack 0
  6507                           
  6508 ;; *************** function _CCP2_ISR *****************
  6509 ;; Defined at:
  6510 ;;		line 405 in file "MCAL_Layer/CCP1/hal_ccp1.c"
  6511 ;; Parameters:    Size  Location     Type
  6512 ;;		None
  6513 ;; Auto vars:     Size  Location     Type
  6514 ;;		None
  6515 ;; Return value:  Size  Location     Type
  6516 ;;                  1    wreg      void 
  6517 ;; Registers used:
  6518 ;;		None
  6519 ;; Tracked objects:
  6520 ;;		On entry : 0/0
  6521 ;;		On exit  : 0/0
  6522 ;;		Unchanged: 0/0
  6523 ;; Data sizes:     COMRAM   BANK0   BANK1   BANK2   BANK3   BANK4   BANK5   BANK6   BANK7   BANK8   BANK9  BANK10  BANK1
      +1  BANK12  BANK13  BANK14  BANK15
  6524 ;;      Params:         0       0       0       0       0       0       0       0       0       0       0       0       
      +0       0       0       0       0
  6525 ;;      Locals:         0       0       0       0       0       0       0       0       0       0       0       0       
      +0       0       0       0       0
  6526 ;;      Temps:          0       0       0       0       0       0       0       0       0       0       0       0       
      +0       0       0       0       0
  6527 ;;      Totals:         0       0       0       0       0       0       0       0       0       0       0       0       
      +0       0       0       0       0
  6528 ;;Total ram usage:        0 bytes
  6529 ;; Hardware stack levels used: 1
  6530 ;; This function calls:
  6531 ;;		Nothing
  6532 ;; This function is called by:
  6533 ;;		_InterruptManager
  6534 ;; This function uses a non-reentrant model
  6535 ;;
  6536                           
  6537                           	psect	text40
  6538  002B26                     __ptext40:
  6539                           	callstack 0
  6540  002B26                     _CCP2_ISR:
  6541                           	callstack 25
  6542  002B26                     
  6543                           ;MCAL_Layer/CCP1/hal_ccp1.c: 406:     (PIR2bits.CCP2IF = 0);
  6544  002B26  90A1               	bcf	161,0,c	;volatile
  6545  002B28  0012               	return		;funcret
  6546  002B2A                     __end_of_CCP2_ISR:
  6547                           	callstack 0
  6548                           
  6549 ;; *************** function _CCP1_ISR *****************
  6550 ;; Defined at:
  6551 ;;		line 397 in file "MCAL_Layer/CCP1/hal_ccp1.c"
  6552 ;; Parameters:    Size  Location     Type
  6553 ;;		None
  6554 ;; Auto vars:     Size  Location     Type
  6555 ;;		None
  6556 ;; Return value:  Size  Location     Type
  6557 ;;                  1    wreg      void 
  6558 ;; Registers used:
  6559 ;;		None
  6560 ;; Tracked objects:
  6561 ;;		On entry : 0/0
  6562 ;;		On exit  : 0/0
  6563 ;;		Unchanged: 0/0
  6564 ;; Data sizes:     COMRAM   BANK0   BANK1   BANK2   BANK3   BANK4   BANK5   BANK6   BANK7   BANK8   BANK9  BANK10  BANK1
      +1  BANK12  BANK13  BANK14  BANK15
  6565 ;;      Params:         0       0       0       0       0       0       0       0       0       0       0       0       
      +0       0       0       0       0
  6566 ;;      Locals:         0       0       0       0       0       0       0       0       0       0       0       0       
      +0       0       0       0       0
  6567 ;;      Temps:          0       0       0       0       0       0       0       0       0       0       0       0       
      +0       0       0       0       0
  6568 ;;      Totals:         0       0       0       0       0       0       0       0       0       0       0       0       
      +0       0       0       0       0
  6569 ;;Total ram usage:        0 bytes
  6570 ;; Hardware stack levels used: 1
  6571 ;; This function calls:
  6572 ;;		Nothing
  6573 ;; This function is called by:
  6574 ;;		_InterruptManager
  6575 ;; This function uses a non-reentrant model
  6576 ;;
  6577                           
  6578                           	psect	text41
  6579  002B2A                     __ptext41:
  6580                           	callstack 0
  6581  002B2A                     _CCP1_ISR:
  6582                           	callstack 25
  6583  002B2A                     
  6584                           ;MCAL_Layer/CCP1/hal_ccp1.c: 398:     (PIR1bits.CCP1IF = 0);
  6585  002B2A  949E               	bcf	158,2,c	;volatile
  6586  002B2C  0012               	return		;funcret
  6587  002B2E                     __end_of_CCP1_ISR:
  6588                           	callstack 0
  6589                           
  6590 ;; *************** function _ADC_ISR *****************
  6591 ;; Defined at:
  6592 ;;		line 196 in file "MCAL_Layer/ADC/hal_adc.c"
  6593 ;; Parameters:    Size  Location     Type
  6594 ;;		None
  6595 ;; Auto vars:     Size  Location     Type
  6596 ;;		None
  6597 ;; Return value:  Size  Location     Type
  6598 ;;                  1    wreg      void 
  6599 ;; Registers used:
  6600 ;;		None
  6601 ;; Tracked objects:
  6602 ;;		On entry : 0/0
  6603 ;;		On exit  : 0/0
  6604 ;;		Unchanged: 0/0
  6605 ;; Data sizes:     COMRAM   BANK0   BANK1   BANK2   BANK3   BANK4   BANK5   BANK6   BANK7   BANK8   BANK9  BANK10  BANK1
      +1  BANK12  BANK13  BANK14  BANK15
  6606 ;;      Params:         0       0       0       0       0       0       0       0       0       0       0       0       
      +0       0       0       0       0
  6607 ;;      Locals:         0       0       0       0       0       0       0       0       0       0       0       0       
      +0       0       0       0       0
  6608 ;;      Temps:          0       0       0       0       0       0       0       0       0       0       0       0       
      +0       0       0       0       0
  6609 ;;      Totals:         0       0       0       0       0       0       0       0       0       0       0       0       
      +0       0       0       0       0
  6610 ;;Total ram usage:        0 bytes
  6611 ;; Hardware stack levels used: 1
  6612 ;; This function calls:
  6613 ;;		Nothing
  6614 ;; This function is called by:
  6615 ;;		_InterruptManager
  6616 ;; This function uses a non-reentrant model
  6617 ;;
  6618                           
  6619                           	psect	text42
  6620  002B2E                     __ptext42:
  6621                           	callstack 0
  6622  002B2E                     _ADC_ISR:
  6623                           	callstack 25
  6624  002B2E                     
  6625                           ;MCAL_Layer/ADC/hal_adc.c: 197:     (PIR1bits.ADIF = 0);
  6626  002B2E  9C9E               	bcf	158,6,c	;volatile
  6627  002B30  0012               	return		;funcret
  6628  002B32                     __end_of_ADC_ISR:
  6629                           	callstack 0
  6630                           
  6631                           	psect	text43
  6632  000000                     __ptext43:
  6633                           	callstack 0
  6634  000000                     
  6635                           	psect	rparam
  6636  0000                     
  6637                           	psect	temp
  6638  00006D                     btemp:
  6639                           	callstack 0
  6640  00006D                     	ds	1
  6641  0000                     int$flags	set	btemp
  6642  0000                     wtemp8	set	btemp+1
  6643  0000                     ttemp5	set	btemp+1
  6644  0000                     ttemp6	set	btemp+4
  6645  0000                     ttemp7	set	btemp+8
  6646                           
  6647                           	psect	idloc
  6648                           
  6649                           ;Config register IDLOC0 @ 0x200000
  6650                           ;	unspecified, using default values
  6651  200000                     	org	2097152
  6652  200000  FF                 	db	255
  6653                           
  6654                           ;Config register IDLOC1 @ 0x200001
  6655                           ;	unspecified, using default values
  6656  200001                     	org	2097153
  6657  200001  FF                 	db	255
  6658                           
  6659                           ;Config register IDLOC2 @ 0x200002
  6660                           ;	unspecified, using default values
  6661  200002                     	org	2097154
  6662  200002  FF                 	db	255
  6663                           
  6664                           ;Config register IDLOC3 @ 0x200003
  6665                           ;	unspecified, using default values
  6666  200003                     	org	2097155
  6667  200003  FF                 	db	255
  6668                           
  6669                           ;Config register IDLOC4 @ 0x200004
  6670                           ;	unspecified, using default values
  6671  200004                     	org	2097156
  6672  200004  FF                 	db	255
  6673                           
  6674                           ;Config register IDLOC5 @ 0x200005
  6675                           ;	unspecified, using default values
  6676  200005                     	org	2097157
  6677  200005  FF                 	db	255
  6678                           
  6679                           ;Config register IDLOC6 @ 0x200006
  6680                           ;	unspecified, using default values
  6681  200006                     	org	2097158
  6682  200006  FF                 	db	255
  6683                           
  6684                           ;Config register IDLOC7 @ 0x200007
  6685                           ;	unspecified, using default values
  6686  200007                     	org	2097159
  6687  200007  FF                 	db	255
  6688                           
  6689                           	psect	config
  6690                           
  6691                           ; Padding undefined space
  6692  300000                     	org	3145728
  6693  300000  FF                 	db	255
  6694                           
  6695                           ;Config register CONFIG1H @ 0x300001
  6696                           ;	Oscillator Selection bits
  6697                           ;	OSC = HS, HS oscillator
  6698                           ;	Fail-Safe Clock Monitor Enable bit
  6699                           ;	FCMEN = OFF, Fail-Safe Clock Monitor disabled
  6700                           ;	Internal/External Oscillator Switchover bit
  6701                           ;	IESO = OFF, Oscillator Switchover mode disabled
  6702  300001                     	org	3145729
  6703  300001  02                 	db	2
  6704                           
  6705                           ;Config register CONFIG2L @ 0x300002
  6706                           ;	Power-up Timer Enable bit
  6707                           ;	PWRT = OFF, PWRT disabled
  6708                           ;	Brown-out Reset Enable bits
  6709                           ;	BOREN = OFF, Brown-out Reset disabled in hardware and software
  6710                           ;	Brown Out Reset Voltage bits
  6711                           ;	BORV = 1, 
  6712  300002                     	org	3145730
  6713  300002  09                 	db	9
  6714                           
  6715                           ;Config register CONFIG2H @ 0x300003
  6716                           ;	Watchdog Timer Enable bit
  6717                           ;	WDT = OFF, WDT disabled (control is placed on the SWDTEN bit)
  6718                           ;	Watchdog Timer Postscale Select bits
  6719                           ;	WDTPS = 32768, 1:32768
  6720  300003                     	org	3145731
  6721  300003  1E                 	db	30
  6722                           
  6723                           ; Padding undefined space
  6724  300004                     	org	3145732
  6725  300004  FF                 	db	255
  6726                           
  6727                           ;Config register CONFIG3H @ 0x300005
  6728                           ;	CCP2 MUX bit
  6729                           ;	CCP2MX = PORTC, CCP2 input/output is multiplexed with RC1
  6730                           ;	PORTB A/D Enable bit
  6731                           ;	PBADEN = OFF, PORTB<4:0> pins are configured as digital I/O on Reset
  6732                           ;	Low-Power Timer1 Oscillator Enable bit
  6733                           ;	LPT1OSC = OFF, Timer1 configured for higher power operation
  6734                           ;	MCLR Pin Enable bit
  6735                           ;	MCLRE = ON, MCLR pin enabled; RE3 input pin disabled
  6736  300005                     	org	3145733
  6737  300005  81                 	db	129
  6738                           
  6739                           ;Config register CONFIG4L @ 0x300006
  6740                           ;	Stack Full/Underflow Reset Enable bit
  6741                           ;	STVREN = ON, Stack full/underflow will cause Reset
  6742                           ;	Single-Supply ICSP Enable bit
  6743                           ;	LVP = OFF, Single-Supply ICSP disabled
  6744                           ;	Extended Instruction Set Enable bit
  6745                           ;	XINST = OFF, Instruction set extension and Indexed Addressing mode disabled (Legacy mo
      +                          de)
  6746                           ;	Background Debugger Enable bit
  6747                           ;	DEBUG = 0x1, unprogrammed default
  6748  300006                     	org	3145734
  6749  300006  81                 	db	129
  6750                           
  6751                           ; Padding undefined space
  6752  300007                     	org	3145735
  6753  300007  FF                 	db	255
  6754                           
  6755                           ;Config register CONFIG5L @ 0x300008
  6756                           ;	Code Protection bit
  6757                           ;	CP0 = OFF, Block 0 (000800-003FFFh) not code-protected
  6758                           ;	Code Protection bit
  6759                           ;	CP1 = OFF, Block 1 (004000-007FFFh) not code-protected
  6760                           ;	Code Protection bit
  6761                           ;	CP2 = OFF, Block 2 (008000-00BFFFh) not code-protected
  6762                           ;	Code Protection bit
  6763                           ;	CP3 = OFF, Block 3 (00C000-00FFFFh) not code-protected
  6764  300008                     	org	3145736
  6765  300008  0F                 	db	15
  6766                           
  6767                           ;Config register CONFIG5H @ 0x300009
  6768                           ;	Boot Block Code Protection bit
  6769                           ;	CPB = OFF, Boot block (000000-0007FFh) not code-protected
  6770                           ;	Data EEPROM Code Protection bit
  6771                           ;	CPD = OFF, Data EEPROM not code-protected
  6772  300009                     	org	3145737
  6773  300009  C0                 	db	192
  6774                           
  6775                           ;Config register CONFIG6L @ 0x30000A
  6776                           ;	Write Protection bit
  6777                           ;	WRT0 = OFF, Block 0 (000800-003FFFh) not write-protected
  6778                           ;	Write Protection bit
  6779                           ;	WRT1 = OFF, Block 1 (004000-007FFFh) not write-protected
  6780                           ;	Write Protection bit
  6781                           ;	WRT2 = OFF, Block 2 (008000-00BFFFh) not write-protected
  6782                           ;	Write Protection bit
  6783                           ;	WRT3 = OFF, Block 3 (00C000-00FFFFh) not write-protected
  6784  30000A                     	org	3145738
  6785  30000A  0F                 	db	15
  6786                           
  6787                           ;Config register CONFIG6H @ 0x30000B
  6788                           ;	Configuration Register Write Protection bit
  6789                           ;	WRTC = OFF, Configuration registers (300000-3000FFh) not write-protected
  6790                           ;	Boot Block Write Protection bit
  6791                           ;	WRTB = OFF, Boot Block (000000-0007FFh) not write-protected
  6792                           ;	Data EEPROM Write Protection bit
  6793                           ;	WRTD = OFF, Data EEPROM not write-protected
  6794  30000B                     	org	3145739
  6795  30000B  E0                 	db	224
  6796                           
  6797                           ;Config register CONFIG7L @ 0x30000C
  6798                           ;	Table Read Protection bit
  6799                           ;	EBTR0 = OFF, Block 0 (000800-003FFFh) not protected from table reads executed in other
      +                           blocks
  6800                           ;	Table Read Protection bit
  6801                           ;	EBTR1 = OFF, Block 1 (004000-007FFFh) not protected from table reads executed in other
      +                           blocks
  6802                           ;	Table Read Protection bit
  6803                           ;	EBTR2 = OFF, Block 2 (008000-00BFFFh) not protected from table reads executed in other
      +                           blocks
  6804                           ;	Table Read Protection bit
  6805                           ;	EBTR3 = OFF, Block 3 (00C000-00FFFFh) not protected from table reads executed in other
      +                           blocks
  6806  30000C                     	org	3145740
  6807  30000C  0F                 	db	15
  6808                           
  6809                           ;Config register CONFIG7H @ 0x30000D
  6810                           ;	Boot Block Table Read Protection bit
  6811                           ;	EBTRB = OFF, Boot Block (000000-0007FFh) not protected from table reads executed in ot
      +                          her blocks
  6812  30000D                     	org	3145741
  6813  30000D  40                 	db	64
  6814                           tosu	equ	0xFFF
  6815                           tosh	equ	0xFFE
  6816                           tosl	equ	0xFFD
  6817                           stkptr	equ	0xFFC
  6818                           pclatu	equ	0xFFB
  6819                           pclath	equ	0xFFA
  6820                           pcl	equ	0xFF9
  6821                           tblptru	equ	0xFF8
  6822                           tblptrh	equ	0xFF7
  6823                           tblptrl	equ	0xFF6
  6824                           tablat	equ	0xFF5
  6825                           prodh	equ	0xFF4
  6826                           prodl	equ	0xFF3
  6827                           indf0	equ	0xFEF
  6828                           postinc0	equ	0xFEE
  6829                           postdec0	equ	0xFED
  6830                           preinc0	equ	0xFEC
  6831                           plusw0	equ	0xFEB
  6832                           fsr0h	equ	0xFEA
  6833                           fsr0l	equ	0xFE9
  6834                           wreg	equ	0xFE8
  6835                           indf1	equ	0xFE7
  6836                           postinc1	equ	0xFE6
  6837                           postdec1	equ	0xFE5
  6838                           preinc1	equ	0xFE4
  6839                           plusw1	equ	0xFE3
  6840                           fsr1h	equ	0xFE2
  6841                           fsr1l	equ	0xFE1
  6842                           bsr	equ	0xFE0
  6843                           indf2	equ	0xFDF
  6844                           postinc2	equ	0xFDE
  6845                           postdec2	equ	0xFDD
  6846                           preinc2	equ	0xFDC
  6847                           plusw2	equ	0xFDB
  6848                           fsr2h	equ	0xFDA
  6849                           fsr2l	equ	0xFD9
  6850                           status	equ	0xFD8

Data Sizes:
    Strings     80
    Constant    16
    Data        93
    BSS         93
    Persistent  0
    Stack       0

Auto Spaces:
    Space          Size  Autos    Used
    COMRAM          126     37     108
    BANK0           128      0     115
    BANK1           256     17      17
    BANK2           256      0       0
    BANK3           256      0       0
    BANK4           256      0       0
    BANK5           256      0       0
    BANK6           256      0       0
    BANK7           256      0       0
    BANK8           256      0       0
    BANK9           256      0       0
    BANK10          256      0       0
    BANK11          256      0       0
    BANK12          256      0       0
    BANK13          256      0       0
    BANK14          256      0       0
    BANK15          128      0       0

Pointer List with Targets:

    vfprintf$2	PTR PTR void  size(2) Largest target is 2
		 -> sprintf@ap(COMRAM[2]), 

    vfprintf$1	PTR const unsigned char  size(2) Largest target is 3
		 -> STR_3(CODE[3]), STR_2(CODE[3]), STR_1(CODE[3]), 

    vfprintf$0	PTR struct _IO_FILE size(2) Largest target is 11
		 -> sprintf@f(COMRAM[11]), 

    S4829$source	PTR const unsigned char  size(2) Largest target is 0

    f...source	PTR const unsigned char  size(2) Largest target is 0

    S4829$buffer	PTR unsigned char  size(2) Largest target is 0

    f...buffer	PTR unsigned char  size(2) Largest target is 0

    tmr0.TMR0_Handler	PTR FTN()void  size(2) Largest target is 1
		 -> TMR_ISR(), 

    hal_timer3_interrupt_handler_init@timer3.TMR3_Handler	PTR FTN()void  size(2) Largest target is 0

    TMR3_InterruptHandler	PTR FTN()void  size(2) Largest target is 1
		 -> Absolute function(), 

    hal_timer3_set_prescaler@timer3.TMR3_Handler	PTR FTN()void  size(2) Largest target is 0

    hal_timer3_rw_8bit_16bit_mode@timer3.TMR3_Handler	PTR FTN()void  size(2) Largest target is 0

    hal_timer3_synchronize_external_clock@timer3.TMR3_Handler	PTR FTN()void  size(2) Largest target is 0

    hal_timer3_select_clock_source@timer3.TMR3_Handler	PTR FTN()void  size(2) Largest target is 0

    hal_timer3_write_value@timer3.TMR3_Handler	PTR FTN()void  size(2) Largest target is 0

    hal_timer3_read_value@timer3.TMR3_Handler	PTR FTN()void  size(2) Largest target is 0

    S3573$TMR3_Handler	PTR FTN()void  size(2) Largest target is 0

    hal_timer3_initialize@timer3.TMR3_Handler	PTR FTN()void  size(2) Largest target is 0

    hal_timer2_interrupt_handler_init@timer2.TMR2_Handler	PTR FTN()void  size(2) Largest target is 0

    TMR2_InterruptHandler	PTR FTN()void  size(2) Largest target is 1
		 -> Absolute function(), 

    S3422$TMR2_Handler	PTR FTN()void  size(2) Largest target is 0

    hal_timer2_initialize@timer2.TMR2_Handler	PTR FTN()void  size(2) Largest target is 0

    hal_timer1_interrupt_handler_init@timer1.TMR1_Handler	PTR FTN()void  size(2) Largest target is 0

    TMR1_InterruptHandler	PTR FTN()void  size(2) Largest target is 1
		 -> Absolute function(), 

    hal_timer1_config_timer1_oscillator@timer1.TMR1_Handler	PTR FTN()void  size(2) Largest target is 0

    hal_timer1_set_prescaler@timer1.TMR1_Handler	PTR FTN()void  size(2) Largest target is 0

    hal_timer1_rw_8bit_16bit_mode@timer1.TMR1_Handler	PTR FTN()void  size(2) Largest target is 0

    hal_timer1_synchronize_external_clock@timer1.TMR1_Handler	PTR FTN()void  size(2) Largest target is 0

    hal_timer1_select_clock_source@timer1.TMR1_Handler	PTR FTN()void  size(2) Largest target is 0

    hal_timer1_write_value@timer1.TMR1_Handler	PTR FTN()void  size(2) Largest target is 0

    hal_timer1_read_value@timer1.TMR1_Handler	PTR FTN()void  size(2) Largest target is 0

    S3093$TMR1_Handler	PTR FTN()void  size(2) Largest target is 0

    hal_timer1_initialize@timer1.TMR1_Handler	PTR FTN()void  size(2) Largest target is 0

    hal_timer0_interrupt_handler_init@timer0.TMR0_Handler	PTR FTN()void  size(2) Largest target is 1
		 -> TMR_ISR(), 

    TMR0_InterruptHandler	PTR FTN()void  size(2) Largest target is 1
		 -> TMR_ISR(), Absolute function(), 

    hal_timer0_interrupt_handler_init@timer0	PTR const struct . size(2) Largest target is 10
		 -> tmr0(BANK0[10]), 

    hal_timer0_interrupt_disable@timer0	PTR const struct . size(2) Largest target is 10
		 -> tmr0(BANK0[10]), 

    hal_timer0_interrupt_enable@timer0	PTR const struct . size(2) Largest target is 10
		 -> tmr0(BANK0[10]), 

    hal_timer0_set_prescaler_value@timer0.TMR0_Handler	PTR FTN()void  size(2) Largest target is 1
		 -> TMR_ISR(), 

    hal_timer0_set_prescaler_value@timer0	PTR const struct . size(2) Largest target is 10
		 -> tmr0(BANK0[10]), 

    hal_timer0_disable_prescaler@timer0.TMR0_Handler	PTR FTN()void  size(2) Largest target is 1
		 -> TMR_ISR(), 

    hal_timer0_disable_prescaler@timer0	PTR const struct . size(2) Largest target is 10
		 -> tmr0(BANK0[10]), 

    hal_timer0_enable_prescaler@timer0.TMR0_Handler	PTR FTN()void  size(2) Largest target is 1
		 -> TMR_ISR(), 

    hal_timer0_enable_prescaler@timer0	PTR const struct . size(2) Largest target is 10
		 -> tmr0(BANK0[10]), 

    hal_timer0_select_8bit_or_16bit_mode@timer0.TMR0_Handler	PTR FTN()void  size(2) Largest target is 1
		 -> TMR_ISR(), 

    hal_timer0_select_8bit_or_16bit_mode@timer0	PTR const struct . size(2) Largest target is 10
		 -> tmr0(BANK0[10]), 

    hal_timer0_select_edge_increment@timer0.TMR0_Handler	PTR FTN()void  size(2) Largest target is 1
		 -> TMR_ISR(), 

    hal_timer0_select_edge_increment@timer0	PTR const struct . size(2) Largest target is 10
		 -> tmr0(BANK0[10]), 

    hal_timer0_select_clock_source@timer0.TMR0_Handler	PTR FTN()void  size(2) Largest target is 1
		 -> TMR_ISR(), 

    hal_timer0_select_clock_source@timer0	PTR const struct . size(2) Largest target is 10
		 -> tmr0(BANK0[10]), 

    S2849$TMR0_Handler	PTR FTN()void  size(2) Largest target is 1
		 -> TMR_ISR(), 

    hal_timer0_initialize@timer0.TMR0_Handler	PTR FTN()void  size(2) Largest target is 1
		 -> TMR_ISR(), 

    hal_timer0_initialize@timer0	PTR const struct . size(2) Largest target is 10
		 -> tmr0(BANK0[10]), 

    RB7_InterruptHandler_Low	PTR FTN()void  size(2) Largest target is 1
		 -> Absolute function(), 

    RB7_InterruptHandler_High	PTR FTN()void  size(2) Largest target is 1
		 -> Absolute function(), 

    RB6_InterruptHandler_Low	PTR FTN()void  size(2) Largest target is 1
		 -> Absolute function(), 

    RB6_InterruptHandler_High	PTR FTN()void  size(2) Largest target is 1
		 -> Absolute function(), 

    RB5_InterruptHandler_Low	PTR FTN()void  size(2) Largest target is 1
		 -> Absolute function(), 

    RB5_InterruptHandler_High	PTR FTN()void  size(2) Largest target is 1
		 -> Absolute function(), 

    RB4_InterruptHandler_Low	PTR FTN()void  size(2) Largest target is 1
		 -> Absolute function(), 

    RB4_InterruptHandler_High	PTR FTN()void  size(2) Largest target is 1
		 -> Absolute function(), 

    Interrupt_RBx_SetInterruptHandler@int_obj.EXT_InterruptHandler_Low	PTR FTN()void  size(2) Largest target is 0

    Interrupt_RBx_SetInterruptHandler@int_obj.EXT_InterruptHandler_High	PTR FTN()void  size(2) Largest target is 0

    INT2_InterruptHandler	PTR FTN()void  size(2) Largest target is 1
		 -> Absolute function(), 

    INT1_InterruptHandler	PTR FTN()void  size(2) Largest target is 1
		 -> Absolute function(), 

    INT0_InterruptHandler	PTR FTN()void  size(2) Largest target is 1
		 -> Absolute function(), 

    Interrupt_INTx_SetInterruptHandler@int_obj.EXT_InterruptHandler	PTR FTN()void  size(2) Largest target is 0

    S2124$EXT_InterruptHandler_Low	PTR FTN()void  size(2) Largest target is 0

    Interrupt_RBx_Pin_Init@int_obj.EXT_InterruptHandler_Low	PTR FTN()void  size(2) Largest target is 0

    S2124$EXT_InterruptHandler_High	PTR FTN()void  size(2) Largest target is 0

    Interrupt_RBx_Pin_Init@int_obj.EXT_InterruptHandler_High	PTR FTN()void  size(2) Largest target is 0

    Interrupt_INTx_Clear_Flag@int_obj.EXT_InterruptHandler	PTR FTN()void  size(2) Largest target is 0

    Interrupt_INTx_Pin_Init@int_obj.EXT_InterruptHandler	PTR FTN()void  size(2) Largest target is 0

    Interrupt_INTx_Edge_Init@int_obj.EXT_InterruptHandler	PTR FTN()void  size(2) Largest target is 0

    Interrupt_INTx_Disable@int_obj.EXT_InterruptHandler	PTR FTN()void  size(2) Largest target is 0

    Interrupt_INTx_Enable@int_obj.EXT_InterruptHandler	PTR FTN()void  size(2) Largest target is 0

    S2081$EXT_InterruptHandler	PTR FTN()void  size(2) Largest target is 0

    External_Interrupt_Global_Enable@int_obj.EXT_InterruptHandler	PTR FTN()void  size(2) Largest target is 0

    gpio_pin_initialize@pin_config	PTR const struct . size(2) Largest target is 10
		 -> rd5(COMRAM[1]), rd4(COMRAM[1]), rd3(COMRAM[1]), rd2(COMRAM[1]), 
		 -> rd1(COMRAM[1]), rd0(COMRAM[1]), rc6(COMRAM[1]), rc5(COMRAM[1]), 
		 -> rc4(COMRAM[1]), rc3(COMRAM[1]), rc2(COMRAM[1]), rc1(COMRAM[1]), 
		 -> rc0(COMRAM[1]), lcd_8.lcd_data(BANK0[8]), lcd_8(BANK0[10]), keypad1.keypad_rows(BANK0[4]), 
		 -> keypad1(BANK0[8]), lcd_2.lcd_data(BANK0[8]), lcd_2(BANK0[10]), lcd_1.lcd_data(BANK0[4]), 
		 -> lcd_1(BANK0[6]), relay_initialize@relay_pin(COMRAM[1]), led_initialize@pin_obj(COMRAM[1]), 

    gpio_pin_read_logic@logic	PTR enum E2800 size(2) Largest target is 1
		 -> keypad_get_pressed_button@logic(COMRAM[1]), button_read_state@pin_logic_status(COMRAM[1]), 

    gpio_pin_read_logic@pin_config	PTR const struct . size(2) Largest target is 8
		 -> keypad1.keypad_columns(BANK0[4]), keypad1(BANK0[8]), 

    gpio_pin_write_logic@pin_config	PTR const struct . size(2) Largest target is 10
		 -> rd5(COMRAM[1]), rd4(COMRAM[1]), rd3(COMRAM[1]), rd2(COMRAM[1]), 
		 -> rd1(COMRAM[1]), rd0(COMRAM[1]), rc6(COMRAM[1]), rc5(COMRAM[1]), 
		 -> rc4(COMRAM[1]), rc3(COMRAM[1]), rc2(COMRAM[1]), rc1(COMRAM[1]), 
		 -> rc0(COMRAM[1]), lcd_8.lcd_data(BANK0[8]), lcd_8(BANK0[10]), keypad1.keypad_rows(BANK0[4]), 
		 -> keypad1(BANK0[8]), lcd_2.lcd_data(BANK0[8]), lcd_2(BANK0[10]), lcd_1.lcd_data(BANK0[4]), 
		 -> lcd_1(BANK0[6]), relay_Off@relay_pin(COMRAM[1]), relay_On@relay_pin(COMRAM[1]), relay_initialize@relay_pin(COMRAM[1]), 
		 -> led_turn_off@pin_obj(COMRAM[1]), led_turn_on@pin_obj(COMRAM[1]), led_initialize@pin_obj(COMRAM[1]), 

    gpio_pin_direction_initialize@pin_config	PTR const struct . size(2) Largest target is 10
		 -> rd5(COMRAM[1]), rd4(COMRAM[1]), rd3(COMRAM[1]), rd2(COMRAM[1]), 
		 -> rd1(COMRAM[1]), rd0(COMRAM[1]), rc6(COMRAM[1]), rc5(COMRAM[1]), 
		 -> rc4(COMRAM[1]), rc3(COMRAM[1]), rc2(COMRAM[1]), rc1(COMRAM[1]), 
		 -> rc0(COMRAM[1]), lcd_8.lcd_data(BANK0[8]), lcd_8(BANK0[10]), keypad1.keypad_columns(BANK0[4]), 
		 -> keypad1.keypad_rows(BANK0[4]), keypad1(BANK0[8]), lcd_2.lcd_data(BANK0[8]), lcd_2(BANK0[10]), 
		 -> lcd_1.lcd_data(BANK0[4]), lcd_1(BANK0[6]), relay_initialize@relay_pin(COMRAM[1]), led_initialize@pin_obj(COMRAM[1]), 

    port_registers	PTR volatile unsigned char [5] size(2) Largest target is 1
		 -> PORTE(BITBIGSFRllll[1]), PORTD(BITBIGSFRllll[1]), PORTC(BITBIGSFRllll[1]), PORTB(BITBIGSFRllll[1]), 
		 -> PORTA(BITBIGSFRllll[1]), 

    lat_registers	PTR volatile unsigned char [5] size(2) Largest target is 1
		 -> LATE(BITBIGSFRlllh[1]), LATD(BITBIGSFRlllh[1]), LATC(BITBIGSFRlllh[1]), LATB(BITBIGSFRlllh[1]), 
		 -> LATA(BITBIGSFRllll[1]), 

    tris_registers	PTR volatile unsigned char [5] size(2) Largest target is 1
		 -> TRISE(BITBIGSFRlh[1]), TRISD(BITBIGSFRlh[1]), TRISC(SFR[1]), TRISB(ABS[1]), 
		 -> TRISA(BITBIGSFRllll[1]), 

    RX_Handler	PTR FTN()void  size(2) Largest target is 1
		 -> Absolute function(), 

    S1555$Int_Rx_Handler_Var	PTR FTN()void  size(2) Largest target is 0

    eusart_rx_init@eusart_rx_obj.Int_Rx_Handler_Var	PTR FTN()void  size(2) Largest target is 0

    TX_Handler	PTR FTN()void  size(2) Largest target is 1
		 -> Absolute function(), 

    S1547$Int_Tx_Handler_Var	PTR FTN()void  size(2) Largest target is 0

    eusart_tx_init@eusart_tx_obj.Int_Tx_Handler_Var	PTR FTN()void  size(2) Largest target is 0

    eusart_baudrate_configuration_bits_init@eusart_obj.eusart_rx_cfg	PTR struct . size(2) Largest target is 0

    eusart_baudrate_configuration_bits_init@eusart_obj.eusart_tx_cfg	PTR struct . size(2) Largest target is 0

    S1562$eusart_rx_cfg	PTR struct . size(2) Largest target is 0

    mcal_eusart_asynchronous_init@eusart_obj.eusart_rx_cfg	PTR struct . size(2) Largest target is 0

    S1562$eusart_tx_cfg	PTR struct . size(2) Largest target is 0

    mcal_eusart_asynchronous_init@eusart_obj.eusart_tx_cfg	PTR struct . size(2) Largest target is 0

    hal_ccp_PWMStop@ccpobj.CCP2_Handler	PTR FTN()void  size(2) Largest target is 0

    hal_ccp_PWMStop@ccpobj.CCP1_Handler	PTR FTN()void  size(2) Largest target is 0

    hal_ccp_PWMStart@ccpobj.CCP2_Handler	PTR FTN()void  size(2) Largest target is 0

    hal_ccp_PWMStart@ccpobj.CCP1_Handler	PTR FTN()void  size(2) Largest target is 0

    hal_ccp_setPWMDuty@ccpobj.CCP2_Handler	PTR FTN()void  size(2) Largest target is 0

    hal_ccp_setPWMDuty@ccpobj.CCP1_Handler	PTR FTN()void  size(2) Largest target is 0

    hal_ccp_compareModeSetValue@ccpobj.CCP2_Handler	PTR FTN()void  size(2) Largest target is 0

    hal_ccp_compareModeSetValue@ccpobj.CCP1_Handler	PTR FTN()void  size(2) Largest target is 0

    hal_ccp_isCompareComplete@ccpobj.CCP2_Handler	PTR FTN()void  size(2) Largest target is 0

    hal_ccp_isCompareComplete@ccpobj.CCP1_Handler	PTR FTN()void  size(2) Largest target is 0

    hal_ccp_readCaptureValue@ccpobj.CCP2_Handler	PTR FTN()void  size(2) Largest target is 0

    hal_ccp_readCaptureValue@ccpobj.CCP1_Handler	PTR FTN()void  size(2) Largest target is 0

    hal_ccp_isCaptureReady@ccpobj.CCP2_Handler	PTR FTN()void  size(2) Largest target is 0

    hal_ccp_isCaptureReady@ccpobj.CCP1_Handler	PTR FTN()void  size(2) Largest target is 0

    hal_ccp_deinit@ccpobj.CCP2_Handler	PTR FTN()void  size(2) Largest target is 0

    hal_ccp_deinit@ccpobj.CCP1_Handler	PTR FTN()void  size(2) Largest target is 0

    CCP2_InterruptHandler	PTR FTN()void  size(2) Largest target is 1
		 -> Absolute function(), 

    CCP1_InterruptHandler	PTR FTN()void  size(2) Largest target is 1
		 -> Absolute function(), 

    S1046$CCP2_Handler	PTR FTN()void  size(2) Largest target is 0

    hal_ccp_init@ccpobj.CCP2_Handler	PTR FTN()void  size(2) Largest target is 0

    S1046$CCP1_Handler	PTR FTN()void  size(2) Largest target is 0

    hal_ccp_init@ccpobj.CCP1_Handler	PTR FTN()void  size(2) Largest target is 0

    ADC_GetConversionResult@_adc.ADC_IntHandler	PTR FTN()void  size(2) Largest target is 0

    ADC_InterruptHandler	PTR FTN()void  size(2) Largest target is 1
		 -> Absolute function(), 

    S689$ADC_IntHandler	PTR FTN()void  size(2) Largest target is 0

    ADC_ModuleInitialize@_adc.ADC_IntHandler	PTR FTN()void  size(2) Largest target is 0

    keypad_get_pressed_button@button_pressed	PTR unsigned char  size(2) Largest target is 1
		 -> sixth_digit(COMRAM[1]), fifth_digit(COMRAM[1]), fourth_digit(COMRAM[1]), third_digit(COMRAM[1]), 
		 -> second_digit(COMRAM[1]), first_digit(COMRAM[1]), key_pressed(COMRAM[1]), 

    keypad_get_pressed_button@keypad	PTR const struct . size(2) Largest target is 8
		 -> keypad1(BANK0[8]), 

    keypad_initialize@keypad	PTR const struct . size(2) Largest target is 8
		 -> keypad1(BANK0[8]), 

    sp__memset	PTR void  size(2) Largest target is 0

    lcd_8bit_set_cursor@lcd	PTR const struct . size(2) Largest target is 10
		 -> lcd_8(BANK0[10]), 

    lcd_8bit_send_string_pos@str	PTR unsigned char  size(2) Largest target is 26
		 -> STR_8(CODE[17]), STR_7(CODE[26]), STR_6(CODE[21]), STR_5(CODE[2]), 
		 -> STR_4(CODE[13]), 

    lcd_8bit_send_string_pos@lcd	PTR const struct . size(2) Largest target is 10
		 -> lcd_8(BANK0[10]), 

    lcd_8bit_send_string@str	PTR unsigned char  size(2) Largest target is 26
		 -> STR_8(CODE[17]), STR_7(CODE[26]), STR_6(CODE[21]), STR_5(CODE[2]), 
		 -> STR_4(CODE[13]), 

    lcd_8bit_send_string@lcd	PTR const struct . size(2) Largest target is 10
		 -> lcd_8(BANK0[10]), 

    lcd_8bit_send_char_data@lcd	PTR const struct . size(2) Largest target is 10
		 -> lcd_8(BANK0[10]), 

    lcd_8bit_send_command@lcd	PTR const struct . size(2) Largest target is 10
		 -> lcd_8(BANK0[10]), lcd_2(BANK0[10]), 

    lcd_8bit_initialize@lcd	PTR const struct . size(2) Largest target is 10
		 -> lcd_8(BANK0[10]), lcd_2(BANK0[10]), 


Critical Paths under _main in COMRAM

    _main->_lcd_8bit_send_string_pos
    _lcd_8bit_send_string_pos->_lcd_8bit_set_cursor
    _lcd_8bit_set_cursor->_lcd_8bit_send_command
    _lcd_8bit_send_string->_lcd_8bit_send_char_data
    _lcd_8bit_send_char_data->_gpio_pin_write_logic
    _lcd_8bit_initialize->_lcd_8bit_send_command
    _lcd_8bit_send_command->_gpio_pin_write_logic
    _keypad_initialize->_gpio_pin_initialize
    _gpio_pin_initialize->_gpio_pin_write_logic
    _keypad_get_pressed_button->_gpio_pin_write_logic
    _hal_timer0_initialize->_hal_timer0_select_clock_source
    _hal_timer0_select_clock_source->_hal_timer0_select_edge_increment

Critical Paths under _InterruptManager in COMRAM

    _InterruptManager->_RB4_ISR
    _InterruptManager->_RB5_ISR
    _InterruptManager->_RB6_ISR
    _InterruptManager->_RB7_ISR

Critical Paths under _main in BANK0

    None.

Critical Paths under _InterruptManager in BANK0

    None.

Critical Paths under _main in BANK1

    None.

Critical Paths under _InterruptManager in BANK1

    None.

Critical Paths under _main in BANK2

    None.

Critical Paths under _InterruptManager in BANK2

    None.

Critical Paths under _main in BANK3

    None.

Critical Paths under _InterruptManager in BANK3

    None.

Critical Paths under _main in BANK4

    None.

Critical Paths under _InterruptManager in BANK4

    None.

Critical Paths under _main in BANK5

    None.

Critical Paths under _InterruptManager in BANK5

    None.

Critical Paths under _main in BANK6

    None.

Critical Paths under _InterruptManager in BANK6

    None.

Critical Paths under _main in BANK7

    None.

Critical Paths under _InterruptManager in BANK7

    None.

Critical Paths under _main in BANK8

    None.

Critical Paths under _InterruptManager in BANK8

    None.

Critical Paths under _main in BANK9

    None.

Critical Paths under _InterruptManager in BANK9

    None.

Critical Paths under _main in BANK10

    None.

Critical Paths under _InterruptManager in BANK10

    None.

Critical Paths under _main in BANK11

    None.

Critical Paths under _InterruptManager in BANK11

    None.

Critical Paths under _main in BANK12

    None.

Critical Paths under _InterruptManager in BANK12

    None.

Critical Paths under _main in BANK13

    None.

Critical Paths under _InterruptManager in BANK13

    None.

Critical Paths under _main in BANK14

    None.

Critical Paths under _InterruptManager in BANK14

    None.

Critical Paths under _main in BANK15

    None.

Critical Paths under _InterruptManager in BANK15

    None.

Call Graph Tables:

 ---------------------------------------------------------------------------------
 (Depth) Function   	        Calls       Base Space   Used Autos Params    Refs
 ---------------------------------------------------------------------------------
 (0) _main                                                19    19      0  119525
                                             35 COMRAM     2     2      0
                                              0 BANK1     17    17      0
                            ___awdiv
                            ___awmod
                _gpio_pin_initialize
               _gpio_pin_write_logic
              _gpio_port_write_logic
              _hal_timer0_initialize
       _hal_timer0_interrupt_disable
        _hal_timer0_interrupt_enable
          _keypad_get_pressed_button
                  _keypad_initialize
                _lcd_8bit_initialize
              _lcd_8bit_send_command
           _lcd_8bit_send_string_pos
 ---------------------------------------------------------------------------------
 (1) _lcd_8bit_send_string_pos                             7     1      6   26145
                                             29 COMRAM     6     0      6
               _lcd_8bit_send_string
                _lcd_8bit_set_cursor
 ---------------------------------------------------------------------------------
 (2) _lcd_8bit_set_cursor                                  7     3      4   13578
                                             22 COMRAM     7     3      4
              _lcd_8bit_send_command
 ---------------------------------------------------------------------------------
 (2) _lcd_8bit_send_string                                 5     1      4   10531
                                             22 COMRAM     5     1      4
            _lcd_8bit_send_char_data
 ---------------------------------------------------------------------------------
 (3) _lcd_8bit_send_char_data                              9     6      3   10153
                                             13 COMRAM     9     6      3
               _gpio_pin_write_logic
 ---------------------------------------------------------------------------------
 (1) _lcd_8bit_initialize                                  6     4      2   26269
                                             22 COMRAM     6     4      2
                _gpio_pin_initialize
              _lcd_8bit_send_command
 ---------------------------------------------------------------------------------
 (3) _lcd_8bit_send_command                                9     6      3   12673
                                             13 COMRAM     9     6      3
               _gpio_pin_write_logic
 ---------------------------------------------------------------------------------
 (1) _keypad_initialize                                    7     5      2   14143
                                             17 COMRAM     6     4      2
      _gpio_pin_direction_initialize
                _gpio_pin_initialize
 ---------------------------------------------------------------------------------
 (2) _gpio_pin_initialize                                  4     2      2   12862
                                             13 COMRAM     4     2      2
      _gpio_pin_direction_initialize
               _gpio_pin_write_logic
 ---------------------------------------------------------------------------------
 (3) _gpio_pin_direction_initialize                        9     7      2     887
                                              3 COMRAM     9     7      2
 ---------------------------------------------------------------------------------
 (1) _keypad_get_pressed_button                           11     7      4   11915
                                             13 COMRAM    11     7      4
                _gpio_pin_read_logic
               _gpio_pin_write_logic
 ---------------------------------------------------------------------------------
 (4) _gpio_pin_write_logic                                10     7      3    9437
                                              3 COMRAM    10     7      3
 ---------------------------------------------------------------------------------
 (2) _gpio_pin_read_logic                                 10     6      4     559
                                              3 COMRAM     9     5      4
 ---------------------------------------------------------------------------------
 (1) _hal_timer0_interrupt_disable                         3     1      2     224
                                              3 COMRAM     2     0      2
 ---------------------------------------------------------------------------------
 (1) _hal_timer0_initialize                                5     3      2    2471
                                              9 COMRAM     4     2      2
       _hal_timer0_disable_prescaler
        _hal_timer0_enable_prescaler
        _hal_timer0_interrupt_enable
  _hal_timer0_interrupt_handler_init
_hal_timer0_select_8bit_or_16bit_mod
     _hal_timer0_select_clock_source
   _hal_timer0_select_edge_increment
     _hal_timer0_set_prescaler_value
 ---------------------------------------------------------------------------------
 (2) _hal_timer0_set_prescaler_value                       5     3      2     168
                                              3 COMRAM     4     2      2
 ---------------------------------------------------------------------------------
 (2) _hal_timer0_select_clock_source                       4     2      2     581
                                              6 COMRAM     3     1      2
   _hal_timer0_select_edge_increment
 ---------------------------------------------------------------------------------
 (2) _hal_timer0_select_edge_increment                     4     2      2     289
                                              3 COMRAM     3     1      2
 ---------------------------------------------------------------------------------
 (2) _hal_timer0_select_8bit_or_16bit_mode                 4     2      2     199
                                              3 COMRAM     3     1      2
 ---------------------------------------------------------------------------------
 (2) _hal_timer0_interrupt_handler_init                    3     1      2     165
                                              3 COMRAM     2     0      2
 ---------------------------------------------------------------------------------
 (1) _hal_timer0_interrupt_enable                          3     1      2     224
                                              3 COMRAM     2     0      2
 ---------------------------------------------------------------------------------
 (2) _hal_timer0_enable_prescaler                          3     1      2     168
                                              3 COMRAM     2     0      2
 ---------------------------------------------------------------------------------
 (2) _hal_timer0_disable_prescaler                         4     2      2     168
                                              3 COMRAM     3     1      2
 ---------------------------------------------------------------------------------
 (1) _gpio_port_write_logic                                5     4      1     646
                                              3 COMRAM     4     3      1
 ---------------------------------------------------------------------------------
 (1) ___awmod                                              6     2      4     973
                                              3 COMRAM     6     2      4
 ---------------------------------------------------------------------------------
 (1) ___awdiv                                              8     4      4     985
                                              3 COMRAM     8     4      4
 ---------------------------------------------------------------------------------
 Estimated maximum stack depth 4
 ---------------------------------------------------------------------------------
 (Depth) Function   	        Calls       Base Space   Used Autos Params    Refs
 ---------------------------------------------------------------------------------
 (5) _InterruptManager                                     2     2      0     120
                                              1 COMRAM     2     2      0
                            _ADC_ISR
                           _CCP1_ISR
                           _CCP2_ISR
                      _EUSART_TX_Isr
                           _INT0_ISR
                           _INT1_ISR
                           _INT2_ISR
                            _RB4_ISR
                            _RB5_ISR
                            _RB6_ISR
                            _RB7_ISR
                         _Timer0_ISR
                         _Timer1_ISR
                         _Timer2_ISR
                         _Timer3_ISR
 ---------------------------------------------------------------------------------
 (6) _Timer3_ISR                                           0     0      0       0
 ---------------------------------------------------------------------------------
 (6) _Timer2_ISR                                           0     0      0       0
 ---------------------------------------------------------------------------------
 (6) _Timer1_ISR                                           0     0      0       0
 ---------------------------------------------------------------------------------
 (6) _Timer0_ISR                                           0     0      0       0
                   Absolute function *
                            _TMR_ISR *
 ---------------------------------------------------------------------------------
 (7) _TMR_ISR                                              0     0      0       0
 ---------------------------------------------------------------------------------
 (7) Absolute function(Fake)                               0     0      0       0
 ---------------------------------------------------------------------------------
 (6) _RB7_ISR                                              1     1      0      30
                                              0 COMRAM     1     1      0
 ---------------------------------------------------------------------------------
 (6) _RB6_ISR                                              1     1      0      30
                                              0 COMRAM     1     1      0
 ---------------------------------------------------------------------------------
 (6) _RB5_ISR                                              1     1      0      30
                                              0 COMRAM     1     1      0
 ---------------------------------------------------------------------------------
 (6) _RB4_ISR                                              1     1      0      30
                                              0 COMRAM     1     1      0
 ---------------------------------------------------------------------------------
 (6) _INT2_ISR                                             0     0      0       0
 ---------------------------------------------------------------------------------
 (6) _INT1_ISR                                             0     0      0       0
 ---------------------------------------------------------------------------------
 (6) _INT0_ISR                                             0     0      0       0
 ---------------------------------------------------------------------------------
 (6) _EUSART_TX_Isr                                        0     0      0       0
 ---------------------------------------------------------------------------------
 (6) _CCP2_ISR                                             0     0      0       0
 ---------------------------------------------------------------------------------
 (6) _CCP1_ISR                                             0     0      0       0
 ---------------------------------------------------------------------------------
 (6) _ADC_ISR                                              0     0      0       0
 ---------------------------------------------------------------------------------
 Estimated maximum stack depth 7
 ---------------------------------------------------------------------------------

 Call Graph Graphs:

 _main (ROOT)
   ___awdiv
   ___awmod
   _gpio_pin_initialize
     _gpio_pin_direction_initialize
     _gpio_pin_write_logic
   _gpio_pin_write_logic
   _gpio_port_write_logic
   _hal_timer0_initialize
     _hal_timer0_disable_prescaler
     _hal_timer0_enable_prescaler
     _hal_timer0_interrupt_enable
     _hal_timer0_interrupt_handler_init
     _hal_timer0_select_8bit_or_16bit_mode
     _hal_timer0_select_clock_source
       _hal_timer0_select_edge_increment
     _hal_timer0_select_edge_increment
     _hal_timer0_set_prescaler_value
   _hal_timer0_interrupt_disable
   _hal_timer0_interrupt_enable
   _keypad_get_pressed_button
     _gpio_pin_read_logic
     _gpio_pin_write_logic
   _keypad_initialize
     _gpio_pin_direction_initialize
     _gpio_pin_initialize
   _lcd_8bit_initialize
     _gpio_pin_initialize
     _lcd_8bit_send_command
       _gpio_pin_write_logic
   _lcd_8bit_send_command
   _lcd_8bit_send_string_pos
     _lcd_8bit_send_string
       _lcd_8bit_send_char_data
         _gpio_pin_write_logic
     _lcd_8bit_set_cursor
       _lcd_8bit_send_command

 _InterruptManager (ROOT)
   _ADC_ISR
   _CCP1_ISR
   _CCP2_ISR
   _EUSART_TX_Isr
   _INT0_ISR
   _INT1_ISR
   _INT2_ISR
   _RB4_ISR
   _RB5_ISR
   _RB6_ISR
   _RB7_ISR
   _Timer0_ISR
     Absolute function(Fake) *
     _TMR_ISR *
   _Timer1_ISR
   _Timer2_ISR
   _Timer3_ISR

 Address spaces:
Name               Size   Autos  Total    Cost      Usage
BIGRAM             F7F      0       0      49        0.0%
EEDATA             400      0       0       0        0.0%
BITBANK14          100      0       0      33        0.0%
BANK14             100      0       0      34        0.0%
BITBANK13          100      0       0      31        0.0%
BANK13             100      0       0      32        0.0%
BITBANK12          100      0       0      29        0.0%
BANK12             100      0       0      30        0.0%
BITBANK11          100      0       0      27        0.0%
BANK11             100      0       0      28        0.0%
BITBANK10          100      0       0      25        0.0%
BANK10             100      0       0      26        0.0%
BITBANK9           100      0       0      23        0.0%
BANK9              100      0       0      24        0.0%
BITBANK8           100      0       0      21        0.0%
BANK8              100      0       0      22        0.0%
BITBANK7           100      0       0      19        0.0%
BANK7              100      0       0      20        0.0%
BITBANK6           100      0       0      17        0.0%
BANK6              100      0       0      18        0.0%
BITBANK5           100      0       0      15        0.0%
BANK5              100      0       0      16        0.0%
BITBANK4           100      0       0      13        0.0%
BANK4              100      0       0      14        0.0%
BITBANK3           100      0       0      10        0.0%
BANK3              100      0       0      11        0.0%
BITBANK2           100      0       0       8        0.0%
BANK2              100      0       0       9        0.0%
BITBANK1           100      0       0       6        0.0%
BANK1              100     11      11       7        6.6%
BITBANK15           80      0       0      35        0.0%
BANK15              80      0       0      36        0.0%
BITBANK0            80      0       0       4        0.0%
BANK0               80      0      73       5       89.8%
BITCOMRAM           7E      0       0       0        0.0%
COMRAM              7E     25      6C       1       85.7%
BITBIGSFRhhlhlh     18      0       0      38        0.0%
BITBIGSFRhhh         D      0       0      37        0.0%
BITBIGSFRlh          6      0       0      46        0.0%
BITBIGSFRhhlhll      5      0       0      39        0.0%
BITBIGSFRhlllhh      4      0       0      43        0.0%
BITBIGSFRlllh        4      0       0      47        0.0%
BITBIGSFRhlllhl      4      0       0      44        0.0%
BITBIGSFRllll        4      0       0      48        0.0%
BITBIGSFRhhllh       1      0       0      40        0.0%
BITBIGSFRhlllhh      1      0       0      42        0.0%
BITBIGSFRhhlll       1      0       0      41        0.0%
BITBIGSFRhllll       1      0       0      45        0.0%
BIGSFR               0      0       0     200        0.0%
BITSFR               0      0       0     200        0.0%
SFR                  0      0       0     200        0.0%
STACK                0      0       0       2        0.0%
NULL                 0      0       0       0        0.0%
ABS                  0      0      F0      12        0.0%
DATA                 0      0      F0       3        0.0%
CODE                 0      0       0       0        0.0%


Microchip Technology PIC18 Macro Assembler V2.36 build 20220127204148 
Symbol Table                                                                                   Tue Sep 13 23:20:50 2022

                          ??_InterruptManager 0036                                             _l 0024  
                                           _m 0022                                             _r 0025  
               ??_hal_timer0_enable_prescaler 003A                                   _SSPSTATbits 000FC7  
                                ___awdiv@sign 003D                                   _sixth_digit 002E  
                                         l130 23D6                                           l131 23D8  
                                         l124 1E18                                           l150 2648  
                                         l231 26BA                                           l151 264A  
                                         l137 2324                                           l242 1F28  
                                         l138 2326                                           l243 1F2A  
                                         l172 2272                                           l156 284C  
                                         l173 2274                                           l809 2982  
                                         l761 1BC6                                           l762 1BC8  
                                         l782 2536                                           l791 2724  
                                         l776 1CF6                                           l792 2726  
                                         l777 1CF8                                           _PR2 000FCB  
               gpio_pin_initialize@pin_config 0042                                           _rc0 0066  
                                         _rc1 0065                                           _rd0 006C  
                                         _rc2 0064                                           _rd1 006B  
                                         _rc3 0063                                           _rd2 006A  
                                         _rc4 0062                                           _rd3 0069  
                                         _rc5 0061                                           _rd4 0068  
                                         _rc6 0060                                           _rd5 0067  
                             __end_of_ADC_ISR 2B32                                  ___awmod@sign 003D  
                                         prod 000FF3                           led_initialize@F2881 002D  
                   ?_lcd_8bit_send_string_pos 0052                                           tosl 000FFD  
                                         wreg 000FE8                     _RB5_InterruptHandler_High 0013  
                       relay_initialize@F2879 0029                   __end_of_lcd_8bit_set_cursor 2276  
                             __end_of_RB4_ISR 2AE6                               __end_of_RB5_ISR 2ACC  
                             __end_of_RB6_ISR 2AB2        keypad_get_pressed_button@column_number 004C  
                             __end_of_RB7_ISR 2A98                  __end_of_lcd_8bit_send_string 264C  
                                        l1312 20F2                                          l1240 2014  
                                        l1322 2A7C                                          l2123 21B6  
                                        l1317 2A62                                          l2136 2488  
                                        l1264 25D2                                          l1337 2A44  
                                        l1273 28A4                                          l1282 28FC  
                                        l1296 29EE                                          l1289 29B8  
                                        l1801 14EA                                          l1790 136C  
                                        l1792 13AC                                          l1794 13EC  
                                        l1796 142C                                          l1788 132C  
                                        l1798 146C                                          l9000 25D8  
                                        l9010 2622                                          l9002 25EA  
                                        l9020 254A                                          l9012 2644  
                                        l9110 29BA                                          l9030 25C0  
                                        l9022 2566                                          l9006 2600  
                                        l9112 29CC                                          l9040 28A6  
                                        l9032 25C2                                          l9024 2582  
                                        l9016 2538                                          l9008 261E  
                                        l9114 29E8                                          l9122 2A1E  
                                        l9050 28F6                                          l9042 28A6  
                                        l9026 2588                                          l9034 25D2  
                                        l9018 2538                                          l9210 1D30  
                                        l9116 29EE                                          l9108 29BA  
                                        l9060 2984                                          l9132 2A46  
                                        l9124 2A1E                                          l9044 28B8  
                                        l9052 28FC                                          l9028 25A4  
                                        l9300 1E46                                          l9220 1D52  
                                        l9204 1CFA                                          l9062 2996  
                                        l9134 2A46                                          l9126 2A30  
                                        l9046 28D4                                          l9230 1DA4  
                                        l9222 1D62                                          l9206 1CFE  
                                        l9400 20F4                                          l9064 29B2  
                                        l9136 2A58                                          l9128 2A44  
                                        l9048 28DA                                          l9080 2034  
                                        l9072 2016                                          l9320 1E88  
                                        l9312 1E4E                                          l9240 1DF4  
                                        l9232 1DB4                                          l9224 1D70  
                                        l9216 1D34                                          l9208 1D10  
                                        l9410 2120                                          l9402 20F8  
                                        l9066 29B8                                          l9058 2984  
                                        l9138 2A62                                          l9090 2070  
                                        l9082 2040                                          l9074 2016  
                                        l9330 1EC0                                          l9314 1E62  
                                        l9306 1E4A                                          l9242 1E04  
                                        l9234 1DC4                                          l9226 1D80  
                                        l9218 1D50                                          l9250 27F0  
                                        l9420 214E                                          l9412 2128  
                                        l9404 2106                                          l9092 207C  
                                        l9084 204C                                          l9340 1F0E  
                                        l9332 1EF4                                          l9316 1E64  
                                        l9236 1DD4                                          l9228 1D9E  
                                        l9244 1E18                                          l9252 2802  
                                        l9430 2188                                          l9422 2156  
                                        l9414 212C                                          l9406 210E  
                                        l9350 294A                                          l9086 2058  
                                        l9078 202C                                          l9094 2088  
                                        l9342 1F10                                          l9334 1EF8  
                                        l9326 1E8C                                          l9318 1E74  
                                        l9262 264C                                          l9238 1DE4  
                                        l9254 2820                                          l9440 21AE  
                                        l9432 218A                                          l9424 2164  
                                        l9416 2134                                          l9408 2112  
                                        l9352 295A                                          l9088 2064  
                                        l9360 1F2C                                          l9336 1EFC  
                                        l9328 1EB0                                          l9344 1F24  
                                        l9272 2662                                          l9264 264C  
                                        l8800 23BA                                          l9256 2834  
                                        l9248 27F0                                          l9434 2190  
                                        l9426 216A                                          l9418 2146  
                                        l9450 23F4                                          l9354 295E  
                                        l9098 208C                                          l9370 1F9C  
                                        l9362 1F3E                                          l8730 1BE0  
                                        l9338 1EFE                                          l9274 2672  
                                        l9266 265E                                          l9290 26BA  
                                        l8802 23D2                                          l8810 228C  
                                        l9258 284C                                          l9428 2180  
                                        l9436 2196                                          l9460 2428  
                                        l9452 23F8                                          l9444 23DA  
                                        l9348 294A                                          l9380 1FF6  
                                        l9372 1FB8                                          l9364 1F40  
                                        l9284 2688                                          l9276 2674  
                                        l8820 22DA                                          l8812 229C  
                                        l9438 21A6                                          l9470 2462  
                                        l9462 2430                                          l9454 2406  
                                        l9446 23DE                                          l9382 2002  
                                        l9374 1FC8                                          l9366 1F64  
                                        l9358 1F2C                                          l9390 2A64  
                                        l8734 1C06                                          l8742 1CCC  
                                        l8726 1BCA                                          l9294 1E1A  
                                        l9286 26A4                                          l9278 2684  
                                        l8822 22DC                                          l8830 2320  
                                        l8806 2276                                          l9464 243E  
                                        l9472 2468                                          l9456 240E  
                                        l9448 23EC                                          l8840 287C  
                                        l9384 200E                                          l9376 1FC8  
                                        l9368 1F80                                          l9392 2A64  
                                        l8736 1C62                                          l8728 1BCE  
                                        l9296 1E22                                          l8760 1ABE  
                                        l8752 1A82                                          l9288 26A6  
                                        l8824 22EC                                          l8808 227A  
                                        l9474 2478                                          l9466 2454  
                                        l9458 2420                                          l8842 2882  
                                        l8834 284E                                          l9378 1FE6  
                                        l9386 2014                                          l9394 2A76  
                                        l8738 1CC4                                          l9298 1E34  
                                        l8762 1B20                                          l8754 1A86  
                                        l8826 2300                                          l8818 22A0  
                                        l9476 2480                                          l9468 245C  
                                        l8844 289E                                          l8836 284E  
                                        l9396 2A7C                                          l8756 1A98  
                                        l8764 1B7C                                          l8860 2720  
                                        l8852 26BC                                          l8780 232C  
                                        l8828 2308                                          l9900 1346  
                                        l9820 1076                                          l8838 2860  
                                        l8846 28A4                                          l8870 24AE  
                                        l8854 26BC                                          l8790 2352  
                                        l8782 233E                                          l9910 13B0  
                                        l9902 135C                                          l9830 1096  
                                        l9822 107A                                          l9814 1062  
                                        l8872 24D0                                          l8864 248A  
                                        l8768 1B84                                          l8856 26CE  
                                        l8792 238C                                          l8784 234E  
                                        l9920 141C                                          l9912 13C6  
                                        l9904 1370                                          l9840 10AA  
                                        l9832 109A                                          l9824 107E  
                                        l9816 106E                                          l8874 2536  
                                        l8866 248A                                          l8858 26F0  
                                        l8794 238E                                          l8778 2328  
                                        l8970 21B8                                          l9930 1486  
                                        l9922 1430                                          l9914 13DC  
                                        l9906 1386                                          l9842 10AE  
                                        l9834 109E                                          l9826 1082  
                                        l9818 1072                                          l8868 249C  
                                        l8796 239E                                          l8980 2200  
                                        l8972 21B8                                          l9940 14BE  
                                        l9932 148A                                          l9924 1446  
                                        l9916 13F0                                          l9908 139C  
                                        l9860 1138                                          l9852 10E0  
                                        l9844 10BA                                          l9836 10A2  
                                        l9828 1086                                          l8798 23B2  
                                        l8982 2218                                          l8974 21CA  
                                        l9950 14F4                                          l9942 14C2  
                                        l9934 1496                                          l9926 145C  
                                        l9918 1406                                          l9870 121A  
                                        l9862 11E0                                          l9854 10FE  
                                        l9846 10D6                                          l9838 10A6  
                                        STR_1 105E                                          l8976 21D0  
                                        l8984 2230                                          l9960 1552  
                                        l9944 14D2                                          l9936 14A2  
                                        l9928 1470                                          l9952 1504  
                                        l9872 122E                                          l9880 1280  
                                        l9864 11EC                                          l9856 1116  
                                        l8978 21E8                                          l9970 158C  
                                        l9962 1562                                          l9954 1530  
                                        l9946 14D6                                          l9938 14AE  
                                        l9890 12E4                                          l9882 1292  
                                        l9874 123E                                          l9866 11FC  
                                        l9858 111C                                          STR_4 1051  
                                        STR_5 104F                                          l8988 2238  
                                        l9980 15F2                                          l9972 159C  
                                        l9964 156A                                          l9956 1540  
                                        l9948 14E6                                          l9892 12F0  
                                        l9884 12A6                                          l9876 125A  
                                        l9868 1206                                          STR_6 102B  
                                        STR_7 1011                                          l8998 25D4  
                                        l9990 162C                                          l9982 1602  
                                        l9974 15D0                                          l9966 157A  
                                        l9958 154A                                          l9894 1306  
                                        l9886 12B8                                          l9878 1276  
                                        STR_8 1040                                          l9992 163C  
                                        l9984 160A                                          l9976 15E0  
                                        l9968 1584                                          l9896 131C  
                                        l9888 12C8                                          l9994 1670  
                                        l9986 161A                                          l9978 15EA  
                                        l9898 1330                                          l9996 1680  
                                        l9988 1624                                          l9998 168A  
                                        _LATA 000F89                                          _LATB 000F8A  
                                        _LATC 000F8B                                          _LATD 000F8C  
                                        _LATE 000F8D                                          u8000 26CE  
                                        u8001 26CA                                          u8010 26F0  
                                        u8011 26EC                                          u8020 249C  
                                        u8021 2498                                          u8030 24AE  
                                        u8031 24AA                                          u8200 254A  
                                        u8040 24D0                                          u8201 2546  
                                        u8041 24CC                                          u8210 2566  
                                        u8211 2562                                          u8220 2582  
                                        u8300 2028                                          u9100 132C  
                                        u8221 257E                                          u8301 2024  
                                        u9101 1328                                          u8310 29CC  
                                        u8230 25A4                                          u8054 251E  
                                        u9110 136C                                          u8311 29C8  
                                        u8231 25A0                                          u8055 251A  
                                        u9111 1368                                          u8320 29E8  
                                        u8240 25C0                                          u8400 1D10  
                                        u8160 21CA                                          u9120 13AC  
                                        u8321 29E4                                          u8241 25BC  
                                        u8401 1D0C                                          u8161 21C6  
                                        u9121 13A8                                          u9041 1068  
                                        u8330 2A30                                          u8250 28B8  
                                        u8410 1D62                                          u8170 25EA  
                                        u9130 13EC                                          u8331 2A2C  
                                        u8251 28B4                                          u8411 1D5E  
                                        u8171 25E6                                          u9131 13E8  
                                        u9051 1090                                          u8340 2A58  
                                        u8260 28D4                                          u8500 1EC0  
                                        u8180 25FC                                          u8420 2802  
                                        u9140 142C                                          u9060 1138  
                                        u8341 2A54                                          u8261 28D0  
                                        u8501 1EBC                                          u8181 25F8  
                                        u8421 27FE                                          u9141 1428  
                                        u9061 1134                                          u8270 28F6  
                                        u8510 1F0E                                          u8190 2640  
                                        u8430 2820                                          u9150 146C  
                                        u9070 122E                                          u8271 28F2  
                                        u8511 1F0A                                          u8191 263C  
                                        u8431 281C                                          u9151 1468  
                                        u9207 12FA                                          u9071 122A  
                                        u8600 2146                                          u8280 2996  
                                        u8520 1F20                                          u8440 265E  
                                        u9160 14BE                                          u9080 1292  
                                        u8601 2142                                          u8281 2992  
                                        u8521 1F1C                                          u8441 265A  
                                        u9161 14BA                                          u9217 133A  
                                        u9081 128E                                          u8610 2164  
                                        u8530 295A                                          u8290 29B2  
                                        u7810 1BE0                                          u8450 2684  
                                        u9170 14D2                                          u9090 12B8  
                                        u8611 2160                                          u8531 2956  
                                        u8291 29AE                                          u7811 1BDC  
                                        u8451 2680                                          u9307 159E  
                                        u9171 14CE                                          u9227 137A  
                                        u9091 12B4                                          u8620 2180  
                                        u8540 1F3E                                          u7820 1C02  
                                        u7900 1B9E                                          u8460 26B6  
                                        u9180 14E6                                          u8621 217C  
                                        u8541 1F3A                                          u7821 1BFE  
                                        u8461 26B2                                          u9317 15EC  
                                        u9181 14E2                                          u9237 13BA  
                                        u8630 21A6                                          u8550 1F80  
                                        u8470 1E34                                          u7910 233E  
                                        u8631 21A2                                          u8551 1F7C  
                                        u8471 1E30                                          u7911 233A  
                                        u9407 1D68                                          u9327 1604  
                                        u9247 13FA                                          u8640 23EC  
                                        u8560 1FB8                                          u8480 1E46  
                                        u8641 23E8                                          u8561 1FB4  
                                        u8481 1E42                                          u9417 1D86  
                                        u9337 1626                                          u9257 143A  
                                        u8650 2406                                          u8570 2A76  
                                        u7834 1C26                                          u8490 1E74  
                                        u7850 1A98                                          u7930 239E  
                                        u8651 2402                                          u8571 2A72  
                                        u7835 1C22                                          u8491 1E70  
                                        u7851 1A94                                          u7931 239A  
                                        u9427 1DA0                                          u9347 163E  
                                        u9267 147A                                          u8580 2106  
                                        u8660 2420                                          u7844 1C82  
                                        u7860 1ABA                                          u7924 237C  
                                        u7940 228C                                          u8581 2102  
                                        u8661 241C                                          u7845 1C7E  
                                        u7861 1AB6                                          u9437 23B4  
                                        u7925 2378                                          u7941 2288  
                                        u9357 168C                                          u9277 154C  
                                        u9197 1108                                          u8590 2120  
                                        u8670 243E                                          u8591 211C  
                                        u8671 243A                                          u9367 16A4  
                                        u9287 1564                                          u8680 2454  
                                        u7960 22EC                                          u8681 2450  
                                        u7961 22E8                                          u9377 16C6  
                                        u9297 1586                                          u8690 2478  
                                        u7970 2860                                          u7890 1B9C  
                                        u7874 1ADE                                          u7954 22CA  
                                        u8691 2474                                          u7971 285C  
                                        u7891 1B96                                          u7875 1ADA  
                                        u7955 22C6                                          u9387 16DE  
                                        u7980 287C                                          u7884 1B40  
                                        u7981 2878                                          u7885 1B3C  
                                        u9397 2302                                          u7990 289E  
                                        u7991 289A                                          _TMR1 000FCE  
                                        _TMR2 000FCC                                          _TMR3 000FB2  
                                        _main 1062                      _RB4_InterruptHandler_Low 0015  
                            __end_of_CCP1_ISR 2B2E                              __end_of_CCP2_ISR 2B2A  
                                        _tmr0 00A8                                          _test 0021  
                                        fsr2h 000FDA                                          indf2 000FDF  
                                        fsr1l 000FE1                                          fsr2l 000FD9  
                                        btemp 006D                               __end_of_TMR_ISR 278E  
                    _RB7_InterruptHandler_Low 0009                                          prodh 000FF4  
                                        prodl 000FF3                                    _RX_Handler 00EB  
                                        start 000E                 __end_of_lcd_8bit_send_command 23DA  
        __end_of_hal_timer0_interrupt_disable 2A7E                  _hal_timer0_interrupt_disable 2A64  
                                ___param_bank 000000                  ?_hal_timer0_interrupt_enable 0038  
                       _gpio_port_write_logic 2948                          _gpio_pin_write_logic 1BCA  
                                  _TX_Handler 00ED                              __end_of_INT0_ISR 2B26  
                            __end_of_INT1_ISR 2B22                              __end_of_INT2_ISR 2B1E  
        hal_timer0_select_clock_source@timer0 003B                                         l10000 1692  
                                       l10010 16CC                                         l10002 16A2  
                                       l10100 20AC                                         l10012 16DC  
                                       l10004 16AA                                         l10006 16BA  
                                       l10008 16C4                                         l10094 224C  
                                       l10096 1BB0                                         l10098 1CE0  
              ??_hal_timer0_disable_prescaler 003A                                         ?_main 0035  
                             __end_of___awdiv 21B8                                         _EEADR 000FA9  
                             __end_of___awmod 248A                                 _EUSART_TX_Isr 2B32  
                             ___awdiv@divisor 003A                     _keypad_get_pressed_button 1E1A  
                                       i2l391 2B30                                         i2l712 2B32  
                                       i2l554 2B28                                         i2l549 2B2C  
                             ___awdiv@counter 003C                                         _RCREG 000FAE  
                                       _TMR0H 000FD7                                         _TMR1H 000FCF  
                                       _TMR0L 000FD6                                         _TMR1L 000FCE  
                                       _TMR3H 000FB3                                         _TMR3L 000FB2  
                                       _SPBRG 000FAF                                         _PORTA 000F80  
                                       _PORTB 000F81                                         _PORTC 000F82  
                                       _PORTD 000F83                                         _PORTE 000F84  
                                       _TRISA 000F92                                         _TRISB 000F93  
                                       _TRISC 000F94                                         _TRISD 000F95  
                                       _TRISE 000F96                                         _TXREG 000FAD  
                            _first_digit_done 0020                                         _lcd_1 00C4  
                                       _lcd_2 00B2                                         _lcd_8 009E  
                                       _hours 0023                      ?_lcd_8bit_send_char_data 0042  
                                       main@i 010F                                         pclath 000FFA  
                                       pclatu 000FFB                                         tablat 000FF5  
                                       ttemp5 006E                                         ttemp6 0071  
                                       ttemp7 0075                                         status 000FD8  
                                       wtemp8 006E            main@_7_Segments_Arr_Common_Control 0100  
              ?_gpio_pin_direction_initialize 0038                               __initialization 278E  
                                __end_of_main 16EC                 gpio_pin_read_logic@pin_config 0038  
                       ?_gpio_pin_write_logic 0038                              _fifth_digit_done 001C  
               ?_hal_timer0_interrupt_disable 0038                                     ??_ADC_ISR 0035  
                      lcd_8bit_set_cursor@lcd 004B                        lcd_8bit_set_cursor@row 004D  
                    gpio_pin_read_logic@logic 003A                                 _lat_registers 008A  
           hal_timer0_interrupt_enable@timer0 0038                                ?_EUSART_TX_Isr 0035  
                                      ??_main 0058                                 __activetblptr 000003  
                           _second_digit_done 001F                         _TMR3_InterruptHandler 00E1  
                            led_turn_on@F2886 002C                                     ??_RB4_ISR 0035  
                                   ??_RB5_ISR 0035                                     ??_RB6_ISR 0035  
                                   ??_RB7_ISR 0035      __end_of_hal_timer0_select_edge_increment 28A6  
          ??_hal_timer0_select_edge_increment 003A             ?_hal_timer0_select_edge_increment 0038  
            _hal_timer0_select_edge_increment 284E                                        _ADRESH 000FC4  
                                      _EEADRH 000FAA                                        _ADRESL 000FC3  
                                      _EEDATA 000FA8                                        _CCPR1H 000FBF  
                                      _CCPR2H 000FBC                                        _CCPR1L 000FBE  
                                      _CCPR2L 000FBB               keypad_initialize@column_counter 004B  
                                      _EECON2 000FA7                              ___awdiv@dividend 0038  
                                   ??_TMR_ISR 0035                                        i2l1101 2AE4  
                                      i2l1033 2B24                                        i2l1041 2B1C  
                                      i2l1201 1A76                                        i2l1037 2B20  
                                      i2l1109 2ACA                                        i2l1117 2AB0  
                                      i2l1125 2A96                                        i2l1341 2A1C  
                                      i2l3310 2AD0                                        i2l3320 2AB6  
                                      i2l3314 2AE4                                        i2l3330 2A9C  
                                      i2l1538 2B18                                        i2l3308 2ACE  
                                      i2l3324 2ACA                                        i2l3340 2A82  
                                      i2l1812 278C                                        i2l3254 2B2E  
                                      i2l3318 2AB4                                        i2l3334 2AB0  
                                      i2l1486 2B10                                        i2l3328 2A9A  
                                      i2l3344 2A96                                        i2l1809 278C  
                                      i2l3338 2A80                                        i2l3354 2B06  
                                      i2l3356 2B08                                        i2l1669 2B04  
                                      i2l3358 2B0C                                        i2l8000 1A44  
                                      i2l8002 1A52                                        i2l8004 1A56  
                                      i2l8006 1A64                                        i2l8008 1A72  
                                      i2l6702 2B26                                        i2l6470 2728  
                                      i2l6720 2B22                                        i2l6480 275E  
                                      i2l6472 2736                                        i2l6482 276E  
                                      i2l6474 2738                                        i2l6708 2B32  
                                      i2l6724 2B1E                                        i2l6484 2772  
                                      i2l6476 2748                                        i2l6732 29F0  
                                      i2l6486 2774                                        i2l6478 275C  
                                      i2l6734 29F2                                        i2l6742 2AFA  
                                      i2l6728 2B1A                                        i2l6488 2784  
                                      i2l6736 2A04                                        i2l6744 2AFC  
                                      i2l6738 2B12                                        i2l6746 2B00  
                                      i2l7900 181C                                        i2l7910 185C  
                                      i2l7902 1822                                        i2l6696 2B2A  
                                      i2l7920 1890                                        i2l7912 1860  
                                      i2l7904 1830                                        i2l7930 18C6  
                                      i2l7922 18A0                                        i2l7906 183E  
                                      i2l7914 1866                                        i2l7850 1704  
                                      i2l7940 18FC                                        i2l7932 18D4  
                                      i2l7924 18A4                                        i2l7916 1874  
                                      i2l7908 184C                                        i2l7860 1736  
                                      i2l7852 1712                                        i2l7942 190A  
                                      i2l7950 1932                                        i2l7934 18E4  
                                      i2l7918 1882                                        i2l7926 18AA  
                                      i2l7870 1772                                        i2l7862 1744  
                                      i2l7854 1716                                        i2l7960 1970  
                                      i2l7952 1940                                        i2l7944 1918  
                                      i2l7936 18E8                                        i2l7928 18B8  
                                      i2l7880 17A8                                        i2l7872 1780  
                                      i2l7864 1752                                        i2l7856 1724  
                                      i2l7848 16F6                                        i2l7970 19A4  
                                      i2l7954 194E                                        i2l7962 1976  
                                      i2l7946 1928                                        i2l7938 18EE  
                                      i2l7882 17B6                                        i2l7890 17DE  
                                      i2l7874 1790                                        i2l7866 1756  
                                      i2l7858 1732                                        i2l7980 19D6  
                                      i2l7972 19B2                                        i2l7964 1984  
                                      i2l7956 195C                                        i2l7948 192C  
                                      i2l7892 17EC                                        i2l7884 17C4  
                                      i2l7876 1794                                        i2l7868 1764  
                                      i2l7990 1A12                                        i2l7982 19E4  
                                      i2l7974 19B6                                        i2l7966 1992  
                                      i2l7958 196C                                        i2l7894 17FA  
                                      i2l7886 17D4                                        i2l7878 179A  
                                      i2l7992 1A16                                        i2l7984 19F2  
                                      i2l7976 19C4                                        i2l7968 1996  
                                      i2l7896 1808                                        i2l7888 17D8  
                                      i2l7994 1A24                                        i2l7986 19F6  
                                      i2l7978 19D2                                        i2l7898 1818  
                                      i2l7996 1A32                                        i2l7988 1A04  
                                      i2l7998 1A36                                        _SPBRGH 000FB0  
                                      _SSPBUF 000FC9                   hal_timer0_initialize@timer0 003E  
                   gpio_port_write_logic@port 003B                                    _Timer0_ISR 29F0  
                                  _Timer1_ISR 2B06                                    _Timer2_ISR 2B12  
                                  _Timer3_ISR 2AFA                         _hal_timer0_initialize 1F2C  
                      ?_gpio_port_write_logic 0038                       keypad_initialize@keypad 0046  
             keypad_get_pressed_button@Status 0048                                     ??___awdiv 003C  
                                   ??___awmod 003C                          _lcd_8bit_send_string 25D4  
                                      clear_0 27D4                                        clear_1 27E0  
                            ___awdiv@quotient 003E               keypad_get_pressed_button@keypad 0042  
                             ___awmod@divisor 003A                                        isa$std 000001  
                             ___awmod@counter 003C                   lcd_8bit_send_string_pos@lcd 0052  
                 lcd_8bit_send_string_pos@row 0054                   lcd_8bit_send_string_pos@str 0056  
                                   ?_CCP1_ISR 0035                                  __pdataCOMRAM 005A  
                                   ?_CCP2_ISR 0035                     lcd_8bit_initialize@Status 0050  
                                __mediumconst 0000                                        tblptrh 000FF7  
                                      tblptrl 000FF6                                        tblptru 000FF8  
__end_of_hal_timer0_select_8bit_or_16bit_mode 28FE        ??_hal_timer0_select_8bit_or_16bit_mode 003A  
       ?_hal_timer0_select_8bit_or_16bit_mode 0038          _hal_timer0_select_8bit_or_16bit_mode 28A6  
                                  __accesstop 0080                       __end_of__initialization 27E6  
                                   ?_INT0_ISR 0035                                     ?_INT1_ISR 0035  
                                   ?_INT2_ISR 0035                                 ___rparam_used 000001  
                      ??_gpio_pin_write_logic 003B                                __pcstackCOMRAM 0035  
               lcd_8bit_send_char_data@Status 0049                                  __pidataBANK0 28FE  
                               RB4_ISR@source 0035                               ??_EUSART_TX_Isr 0035  
                       ?_lcd_8bit_send_string 004B                                    ??_CCP1_ISR 0035  
                                  ??_CCP2_ISR 0035                           main@_7_Segments_Arr 0106  
      __end_of_hal_timer0_select_clock_source 25D4                _hal_timer0_select_clock_source 2538  
                keypad_initialize@row_counter 004A                                 RB5_ISR@source 0035  
                                  __pbssBANK0 00CA                keypad_get_pressed_button@logic 0049  
                           _fourth_digit_done 001D                         _INT0_InterruptHandler 00E9  
                                  ??_INT0_ISR 0035                                    ??_INT1_ISR 0035  
                                  ??_INT2_ISR 0035       lcd_8bit_send_command@l_lcd_pins_counter 004A  
  hal_timer0_select_8bit_or_16bit_mode@timer0 0038                        ?_hal_timer0_initialize 003E  
                                 ?_Timer0_ISR 0035                                   ?_Timer1_ISR 0035  
                      lcd_8bit_initialize@lcd 004B                                   ?_Timer2_ISR 0035  
                                 ?_Timer3_ISR 0035                                 RB6_ISR@source 0035  
                           led_turn_off@F2891 002B                                       _ADC_ISR 2B2E  
                             led_toggle@F2896 002A                                 relay_On@F2884 0028  
                                     _RB4_ISR 2ACC                                       _RB5_ISR 2AB2  
                                     _RB6_ISR 2A98                                       _RB7_ISR 2A7E  
                   _RB6_InterruptHandler_High 000F                                       i2u84_40 2AE0  
                                     i2u84_41 2ADC                                       i2u85_40 2AC6  
                                     i2u85_41 2AC2                                       i2u86_40 2AAC  
                                     i2u86_41 2AA8                                       i2u87_40 2A92  
                                     i2u87_41 2A8E       hal_timer0_interrupt_handler_init@timer0 0038  
                               RB7_ISR@source 0035                                       _TMR_ISR 2728  
            ??_hal_timer0_set_prescaler_value 003A               ?_hal_timer0_set_prescaler_value 0038  
                              _tris_registers 0094             __end_of_keypad_get_pressed_button 1F2C  
                    _RB6_InterruptHandler_Low 000D             hal_timer0_enable_prescaler@timer0 0038  
          hal_timer0_interrupt_disable@timer0 0038        lcd_8bit_initialize@l_data_pins_counter 004F  
                        _ADC_InterruptHandler 0019                                       __Hparam 0000  
                                     __Lparam 0000                        ??_lcd_8bit_send_string 004F  
                         _gpio_pin_initialize 26BC                         _lcd_8bit_send_command 2328  
                         _gpio_pin_read_logic 248A                                       ___awdiv 20F4  
                                     ___awmod 23DA                                  __psmallconst 1000  
                                     __pcinit 278E                                       __ramtop 1000  
                    _lcd_8bit_send_string_pos 27F0                                       __ptext0 1062  
                                     __ptext1 27F0                                       __ptext2 21B8  
                                     __ptext3 25D4                                       __ptext4 2276  
                                     __ptext5 1CFA                                       __ptext6 2328  
                                     __ptext7 264C                                       __ptext8 26BC  
                                     __ptext9 1A82                                     _T0CONbits 000FD5  
                                   _T1CONbits 000FCD               ??_gpio_pin_direction_initialize 003A  
                                   _T2CONbits 000FCA                                       _keypad1 00BC  
                                   _T3CONbits 000FB1                              ___awmod@dividend 0038  
                                     _minutes 005A                                       _seconds 005B  
                        ?_gpio_pin_initialize 0042                          ?_gpio_pin_read_logic 0038  
         gpio_pin_direction_initialize@Status 0040                                __pintcode_body 16EC  
                        end_of_initialization 27E6        hal_timer0_select_edge_increment@timer0 0038  
                                  fp__TMR_ISR 0000          __end_of_hal_timer0_disable_prescaler 29F0  
                _hal_timer0_disable_prescaler 29BA                                       int_func 16EC  
                     ??_gpio_port_write_logic 0039                                     _RCSTAbits 000FAB  
                                     postdec1 000FE5                                       postdec2 000FDD  
                                     postinc0 000FEE                                       postinc2 000FDE  
                 lcd_8bit_send_command@Status 0049                         _INT1_InterruptHandler 00E7  
                                   _PORTBbits 000F81                              _InterruptManager 0008  
                                   _TRISAbits 000F92                                     _TRISCbits 000F94  
                       ??_gpio_pin_initialize 0044                         ??_gpio_pin_read_logic 003C  
        hal_timer0_set_prescaler_value@timer0 0038                                   _CCP1CONbits 000FBD  
                                 _CCP2CONbits 000FBA                                     _TXSTAbits 000FAC  
                ?_hal_timer0_enable_prescaler 0038                 ?_hal_timer0_disable_prescaler 0038  
         __end_of_hal_timer0_interrupt_enable 2A64                   _hal_timer0_interrupt_enable 2A46  
                      ?_lcd_8bit_send_command 0042           keypad_get_pressed_button@row_number 004B  
              lcd_8bit_send_string_pos@column 0055                                   _BAUDCONbits 000FB8  
                               __pidataCOMRAM 2AE6                 ??_hal_timer0_interrupt_enable 003A  
                              _timer2_preload 0026                           start_initialization 278E  
                  lcd_8bit_send_string@Status 004F                           _lcd_8bit_initialize 1CFA  
                    _timer3_isr_preload_value 0001         __end_of_gpio_pin_direction_initialize 1BCA  
               _gpio_pin_direction_initialize 1A82                       ??_hal_timer0_initialize 0040  
                            _third_digit_done 001E                                  ??_Timer0_ISR 0035  
                                ??_Timer1_ISR 0035                                  ??_Timer2_ISR 0035  
                                ??_Timer3_ISR 0035     __end_of_hal_timer0_interrupt_handler_init 2A46  
         ??_hal_timer0_interrupt_handler_init 003A            ?_hal_timer0_interrupt_handler_init 0038  
           _hal_timer0_interrupt_handler_init 2A1E                          ?_lcd_8bit_initialize 004B  
                     _lcd_8bit_send_char_data 2276                                   __pdataBANK0 0080  
                                    ?_ADC_ISR 0035                         __end_of_EUSART_TX_Isr 2B34  
                         _lcd_8bit_set_cursor 21B8                      lcd_8bit_send_command@lcd 0042  
                            _sixth_digit_done 001B       keypad_get_pressed_button@button_pressed 0044  
                                    ?_RB4_ISR 0035                                      ?_RB5_ISR 0035  
                                    ?_RB6_ISR 0035                                      ?_RB7_ISR 0035  
                                 __pbssCOMRAM 0001                                 __pcstackBANK1 0100  
                          __end_of_Timer0_ISR 2A1E                            __end_of_Timer1_ISR 2B12  
                          __end_of_Timer2_ISR 2B1A                            __end_of_Timer3_ISR 2B06  
                                    ?_TMR_ISR 0035                          ?_lcd_8bit_set_cursor 004B  
                       _INT2_InterruptHandler 00E5                gpio_pin_write_logic@pin_config 0038  
                       _TMR0_InterruptHandler 0007                         ??_lcd_8bit_initialize 004D  
                  ??_lcd_8bit_send_string_pos 0058                               main@lcd_message 010D  
                                   __pintcode 0008                   lcd_8bit_send_char_data@data 0044  
      __end_of_hal_timer0_set_prescaler_value 20F4                _hal_timer0_set_prescaler_value 2016  
                                    ?___awdiv 0038                                      ?___awmod 0038  
                   gpio_pin_write_logic@logic 003A                     gpio_pin_initialize@Status 0045  
                                 __smallconst 1000                                      _CCP1_ISR 2B2A  
                                    _CCP2_ISR 2B26                     _RB4_InterruptHandler_High 0017  
              ??_hal_timer0_interrupt_disable 003A                                  _fourth_digit 0030  
          keypad_get_pressed_button@l_counter 004A                     _RB7_InterruptHandler_High 000B  
                       ??_lcd_8bit_set_cursor 004F                                      _INT0_ISR 2B22  
                                   _t_counter 00DD                                      _INT1_ISR 2B1E  
                                    _INT2_ISR 2B1A                      _RB5_InterruptHandler_Low 0011  
                                    _RB4_Flag 005F                     ??_lcd_8bit_send_char_data 0045  
                                    _RB5_Flag 005E                                      _RB6_Flag 005D  
                         __end_of_keypad_btns 1011                                      _RB7_Flag 005C  
                                 _fifth_digit 002F                      __end_of_InterruptManager 1A82  
                  ?_keypad_get_pressed_button 0042                                      _PIE1bits 000F9D  
                                    _PIE2bits 000FA0                                relay_Off@F2889 0027  
               __end_of_gpio_port_write_logic 2984                                      i2u505_40 2A04  
                                    i2u505_41 2A00                                      _PIR1bits 000F9E  
                                    i2u506_48 2A0A                                      i2u506_49 2A1C  
                                    _PIR2bits 000FA1                                      i2u650_40 1744  
                                    i2u650_41 1740                                      i2u483_40 2748  
                                    i2u651_40 1752                                      i2u483_41 2744  
                                    i2u651_41 174E                                      i2u484_40 276E  
                                    i2u660_40 17EC                                      i2u652_40 1764  
                                    i2u484_41 276A                                      i2u660_41 17E8  
                                    i2u652_41 1760                                      i2u485_40 2784  
                                    i2u661_40 17FA                                      i2u653_40 1772  
                                    i2u485_41 2780                                      i2u661_41 17F6  
                                    i2u653_41 176E                                      i2u670_40 1890  
                                    i2u662_40 1808                                      i2u654_40 1780  
                                    i2u646_40 1704                                      i2u670_41 188C  
                                    i2u662_41 1804                                      i2u654_41 177C  
                                    i2u646_41 1700                                      i2u671_40 18A0  
                                    i2u663_40 1818                                      i2u655_40 1790  
                                    i2u647_40 1712                                      i2u671_41 189C  
                                    i2u663_41 1814                                      i2u655_41 178C  
                                    i2u647_41 170E                                      i2u680_40 1940  
                                    i2u672_40 18B8                                      i2u664_40 1830  
                                    i2u656_40 17A8                                      i2u648_40 1724  
                                    i2u680_41 193C                                      i2u672_41 18B4  
                                    i2u664_41 182C                                      i2u656_41 17A4  
                                    i2u648_41 1720                                      i2u681_40 194E  
                                    i2u673_40 18C6                                      i2u665_40 183E  
                                    i2u657_40 17B6                                      i2u649_40 1732  
                                    i2u681_41 194A                                      i2u673_41 18C2  
                                    i2u665_41 183A                                      i2u657_41 17B2  
                                    i2u649_41 172E                                      i2u690_40 19E4  
                                    i2u682_40 195C                                      i2u674_40 18D4  
                                    i2u666_40 184C                                      i2u658_40 17C4  
                                    i2u690_41 19E0                                      i2u682_41 1958  
                                    i2u674_41 18D0                                      i2u666_41 1848  
                                    i2u658_41 17C0                                      i2u691_40 19F2  
                                    i2u683_40 196C                                      i2u675_40 18E4  
                                    i2u667_40 185C                                      i2u659_40 17D4  
                                    i2u691_41 19EE                                      i2u683_41 1968  
                                    i2u675_41 18E0                                      i2u667_41 1858  
                                    i2u659_41 17D0                                      i2u692_40 1A04  
                                    i2u684_40 1984                                      i2u676_40 18FC  
                                    i2u668_40 1874                                      i2u692_41 1A00  
                                    i2u684_41 1980                                      i2u676_41 18F8  
                                    i2u668_41 1870                                      i2u693_40 1A12  
                                    i2u685_40 1992                                      i2u677_40 190A  
                                    i2u669_40 1882                                      i2u693_41 1A0E  
                                    i2u685_41 198E                                      i2u677_41 1906  
                                    i2u669_41 187E                                      i2u694_40 1A24  
                                    i2u686_40 19A4                                      i2u678_40 1918  
                                    i2u694_41 1A20                                      i2u686_41 19A0  
                                    i2u678_41 1914                                      i2u695_40 1A32  
                                    i2u687_40 19B2                                      i2u679_40 1928  
                                    i2u695_41 1A2E                                      i2u687_41 19AE  
                                    i2u679_41 1924                                      i2u696_40 1A44  
                                    i2u688_40 19C4                                      i2u696_41 1A40  
                                    i2u688_41 19C0                                      i2u697_40 1A52  
                                    i2u689_40 19D2                                      i2u697_41 1A4E  
                                    i2u689_41 19CE                                      i2u698_40 1A64  
                                    i2u698_41 1A60                                      i2u699_40 1A72  
                                    i2u699_41 1A6E                                     main@F3695 00CA  
                                   main@F3697 00D1                                    _ADCON0bits 000FC2  
                                  _ADCON1bits 000FC1                                    _ADCON2bits 000FC0  
     gpio_pin_direction_initialize@pin_config 0038                     lcd_8bit_set_cursor@Status 0051  
                   lcd_8bit_set_cursor@column 004E                                   _INTCON2bits 000FF1  
                                 _INTCON3bits 000FF0                                     copy_data0 27A2  
                                   copy_data1 27C2                             _keypad_initialize 264C  
                                 _first_digit 0033                                  _second_digit 0032  
                          ?_keypad_initialize 0046                       ??_lcd_8bit_send_command 0045  
                                  _EECON1bits 000FA6                                      __Hrparam 0000  
                                    __Lrparam 0000                           ??_keypad_initialize 0048  
                       _CCP1_InterruptHandler 00F1     lcd_8bit_send_char_data@l_lcd_pins_counter 004A  
             __end_of_lcd_8bit_send_char_data 2328                   __end_of_gpio_pin_initialize 2728  
                 __end_of_gpio_pin_read_logic 2538                         _TMR1_InterruptHandler 0005  
                                 _key_pressed 0034                    lcd_8bit_send_char_data@lcd 0042  
                   __end_of_keypad_initialize 26BC                                      __ptext10 1E1A  
                                    __ptext11 1BCA                                      __ptext20 2A46  
                                    __ptext12 248A                                      __ptext21 2984  
                                    __ptext13 2A64                                      __ptext30 29F0  
                                    __ptext22 29BA                                      __ptext14 1F2C  
                                    __ptext31 2728                                      __ptext23 2948  
                                    __ptext15 2016                                      __ptext40 2B26  
                                    __ptext32 2A7E                                      __ptext24 23DA  
                                    __ptext16 2538                                      __ptext41 2B2A  
                                    __ptext33 2A98                                      __ptext25 20F4  
                                    __ptext17 284E                                      __ptext42 2B2E  
                                    __ptext34 2AB2                                      __ptext18 28A6  
                                    __ptext43 0000                                      __ptext35 2ACC  
                                    __ptext27 2AFA                                      __ptext19 2A1E  
                                    __ptext36 2B1A                                      __ptext28 2B12  
                                    __ptext37 2B1E                                      __ptext29 2B06  
                                    __ptext38 2B22                                      __ptext39 2B32  
                                 _keypad_btns 1001                               _set_clock_array 00D7  
               __end_of_hal_timer0_initialize 2016              __end_of_lcd_8bit_send_string_pos 284E  
                                    isa$xinst 000000                                      int$flags 006D  
                                  _INTCONbits 000FF2                      _timer1_isr_preload_value 0003  
                __end_of_gpio_pin_write_logic 1CFA                                      intlevel2 0000  
          hal_timer0_disable_prescaler@timer0 0038                    gpio_pin_write_logic@Status 0041  
                                 _third_digit 0031                                _port_registers 0080  
                                 _SSPCON1bits 000FC6                    gpio_port_write_logic@logic 0038  
                     lcd_8bit_send_string@lcd 004B                       lcd_8bit_send_string@str 004D  
                       _CCP2_InterruptHandler 00EF                   __end_of_lcd_8bit_initialize 1E1A  
                lcd_8bit_send_command@command 0044           __end_of_hal_timer0_enable_prescaler 29BA  
                 _hal_timer0_enable_prescaler 2984                         _TMR2_InterruptHandler 00E3  
                 ??_keypad_get_pressed_button 0046                             ?_InterruptManager 0035  
            ??_hal_timer0_select_clock_source 003D               ?_hal_timer0_select_clock_source 003B  
